	.file	"blocklist.c"
	.text
.Ltext0:
	.local	_blocklist
	.comm	_blocklist,8,8
	.section	.rodata
.LC0:
	.string	"r"
.LC1:
	.string	"./blocklist"
.LC2:
	.string	"\n"
	.text
	.globl	init_blocklist
	.type	init_blocklist, @function
init_blocklist:
.LFB6:
	.file 1 "src/blocklist.c"
	.loc 1 6 1
	.cfi_startproc
	endbr64
	pushq	%rbp
	.cfi_def_cfa_offset 16
	.cfi_offset 6, -16
	movq	%rsp, %rbp
	.cfi_def_cfa_register 6
	pushq	%rbx
	subq	$312, %rsp
	.cfi_offset 3, -24
	movl	%edi, -308(%rbp)
	.loc 1 6 1
	movq	%fs:40, %rax
	movq	%rax, -24(%rbp)
	xorl	%eax, %eax
	.loc 1 8 17
	movl	$16, %edi
	call	malloc@PLT
	movq	%rax, -304(%rbp)
	.loc 1 9 8
	cmpl	$0, -308(%rbp)
	jne	.L2
	.loc 1 10 20
	movq	-304(%rbp), %rax
	movq	%rax, _blocklist(%rip)
.L2:
	.loc 1 12 8
	cmpq	$0, -304(%rbp)
	jne	.L3
	.loc 1 13 16
	movl	$0, %eax
	jmp	.L8
.L3:
	.loc 1 15 25
	movq	-304(%rbp), %rax
	movq	$0, (%rax)
	.loc 1 16 30
	movq	-304(%rbp), %rax
	movl	$0, 8(%rax)
	.loc 1 19 18
	leaq	.LC0(%rip), %rsi
	leaq	.LC1(%rip), %rdi
	call	fopen@PLT
	movq	%rax, -296(%rbp)
	.loc 1 20 8
	cmpq	$0, -296(%rbp)
	jne	.L6
	.loc 1 21 16
	movq	-304(%rbp), %rax
	jmp	.L8
.L7:
	.loc 1 27 14
	leaq	-288(%rbp), %rax
	leaq	.LC2(%rip), %rsi
	movq	%rax, %rdi
	call	strcspn@PLT
	.loc 1 27 35
	movb	$0, -288(%rbp,%rax)
	.loc 1 31 49
	movq	-304(%rbp), %rax
	movl	8(%rax), %eax
	.loc 1 31 65
	addl	$1, %eax
	cltq
	.loc 1 30 31
	leaq	0(,%rax,8), %rdx
	.loc 1 30 48
	movq	-304(%rbp), %rax
	movq	(%rax), %rax
	.loc 1 30 31
	movq	%rdx, %rsi
	movq	%rax, %rdi
	call	realloc@PLT
	.loc 1 30 29
	movq	-304(%rbp), %rdx
	movq	%rax, (%rdx)
	.loc 1 32 18
	movq	-304(%rbp), %rax
	movq	(%rax), %rdx
	.loc 1 32 38
	movq	-304(%rbp), %rax
	movl	8(%rax), %eax
	cltq
	.loc 1 32 28
	salq	$3, %rax
	leaq	(%rdx,%rax), %rbx
	.loc 1 32 57
	leaq	-288(%rbp), %rax
	movq	%rax, %rdi
	call	strdup@PLT
	.loc 1 32 55
	movq	%rax, (%rbx)
	.loc 1 33 18
	movq	-304(%rbp), %rax
	movl	8(%rax), %eax
	.loc 1 33 33
	leal	1(%rax), %edx
	movq	-304(%rbp), %rax
	movl	%edx, 8(%rax)
.L6:
	.loc 1 24 12
	movq	-296(%rbp), %rdx
	leaq	-288(%rbp), %rax
	movl	$256, %esi
	movq	%rax, %rdi
	call	fgets@PLT
	.loc 1 24 11
	testq	%rax, %rax
	jne	.L7
	.loc 1 36 5
	movq	-296(%rbp), %rax
	movq	%rax, %rdi
	call	fclose@PLT
	.loc 1 38 12
	movq	-304(%rbp), %rax
.L8:
	.loc 1 39 1 discriminator 1
	movq	-24(%rbp), %rcx
	xorq	%fs:40, %rcx
	je	.L9
	.loc 1 39 1 is_stmt 0
	call	__stack_chk_fail@PLT
.L9:
	addq	$312, %rsp
	popq	%rbx
	popq	%rbp
	.cfi_def_cfa 7, 8
	ret
	.cfi_endproc
.LFE6:
	.size	init_blocklist, .-init_blocklist
	.globl	is_blocked
	.type	is_blocked, @function
is_blocked:
.LFB7:
	.loc 1 43 1 is_stmt 1
	.cfi_startproc
	endbr64
	pushq	%rbp
	.cfi_def_cfa_offset 16
	.cfi_offset 6, -16
	movq	%rsp, %rbp
	.cfi_def_cfa_register 6
	subq	$32, %rsp
	movq	%rdi, -24(%rbp)
	movq	%rsi, -32(%rbp)
	.loc 1 44 8
	cmpq	$0, -24(%rbp)
	jne	.L11
	.loc 1 45 19
	movq	_blocklist(%rip), %rax
	movq	%rax, -24(%rbp)
.L11:
.LBB2:
	.loc 1 47 14
	movl	$0, -4(%rbp)
	.loc 1 47 5
	jmp	.L12
.L15:
	.loc 1 49 33
	movq	-24(%rbp), %rax
	movq	(%rax), %rax
	.loc 1 49 43
	movl	-4(%rbp), %edx
	movslq	%edx, %rdx
	salq	$3, %rdx
	addq	%rdx, %rax
	.loc 1 49 13
	movq	(%rax), %rax
	movq	-32(%rbp), %rdx
	movq	%rdx, %rsi
	movq	%rax, %rdi
	call	glob_match
	.loc 1 49 12
	testl	%eax, %eax
	je	.L13
	.loc 1 51 20
	movl	$1, %eax
	jmp	.L14
.L13:
	.loc 1 47 52 discriminator 2
	addl	$1, -4(%rbp)
.L12:
	.loc 1 47 34 discriminator 1
	movq	-24(%rbp), %rax
	movl	8(%rax), %eax
	.loc 1 47 5 discriminator 1
	cmpl	%eax, -4(%rbp)
	jl	.L15
.LBE2:
	.loc 1 55 12
	movl	$0, %eax
.L14:
	.loc 1 56 1
	leave
	.cfi_def_cfa 7, 8
	ret
	.cfi_endproc
.LFE7:
	.size	is_blocked, .-is_blocked
	.globl	glob_match
	.type	glob_match, @function
glob_match:
.LFB8:
	.loc 1 71 1
	.cfi_startproc
	endbr64
	pushq	%rbp
	.cfi_def_cfa_offset 16
	.cfi_offset 6, -16
	movq	%rsp, %rbp
	.cfi_def_cfa_register 6
	subq	$32, %rsp
	movq	%rdi, -24(%rbp)
	movq	%rsi, -32(%rbp)
	.loc 1 73 9
	movq	-24(%rbp), %rax
	movzbl	(%rax), %eax
	.loc 1 73 8
	testb	%al, %al
	jne	.L17
	.loc 1 75 17
	movq	-32(%rbp), %rax
	movzbl	(%rax), %eax
	.loc 1 75 25
	testb	%al, %al
	sete	%al
	movzbl	%al, %eax
	jmp	.L18
.L17:
	.loc 1 79 9
	movq	-24(%rbp), %rax
	movzbl	(%rax), %eax
	.loc 1 79 8
	cmpb	$42, %al
	jne	.L19
.L22:
	.loc 1 85 17
	movq	-24(%rbp), %rax
	leaq	1(%rax), %rdx
	movq	-32(%rbp), %rax
	movq	%rax, %rsi
	movq	%rdx, %rdi
	call	glob_match
	.loc 1 85 16
	testl	%eax, %eax
	je	.L20
	.loc 1 87 24
	movl	$1, %eax
	jmp	.L18
.L20:
	.loc 1 89 17
	movq	-32(%rbp), %rax
	movzbl	(%rax), %eax
	.loc 1 89 16
	testb	%al, %al
	jne	.L21
	.loc 1 91 24
	movl	$0, %eax
	jmp	.L18
.L21:
	.loc 1 93 19
	addq	$1, -32(%rbp)
	.loc 1 85 16
	jmp	.L22
.L19:
	.loc 1 98 9
	movq	-24(%rbp), %rax
	movzbl	(%rax), %eax
	.loc 1 98 8
	cmpb	$91, %al
	jne	.L23
.LBB3:
	.loc 1 100 13
	movl	$0, -8(%rbp)
	.loc 1 101 16
	addq	$1, -24(%rbp)
	.loc 1 104 23
	movq	-24(%rbp), %rax
	movzbl	(%rax), %eax
	.loc 1 104 39
	cmpb	$33, %al
	je	.L24
	.loc 1 104 42 discriminator 2
	movq	-24(%rbp), %rax
	movzbl	(%rax), %eax
	.loc 1 104 39 discriminator 2
	cmpb	$94, %al
	jne	.L25
.L24:
	.loc 1 104 39 is_stmt 0 discriminator 3
	movl	$1, %eax
	jmp	.L26
.L25:
	.loc 1 104 39 discriminator 4
	movl	$0, %eax
.L26:
	.loc 1 104 13 is_stmt 1 discriminator 6
	movl	%eax, -4(%rbp)
	.loc 1 105 12 discriminator 6
	cmpl	$0, -4(%rbp)
	je	.L27
	.loc 1 106 20
	addq	$1, -24(%rbp)
.L27:
	.loc 1 109 13
	movq	-24(%rbp), %rax
	movzbl	(%rax), %eax
	.loc 1 109 12
	cmpb	$93, %al
	jne	.L28
	.loc 1 110 20
	movl	$0, %eax
	jmp	.L18
.L28:
	.loc 1 113 13
	movq	-32(%rbp), %rax
	movzbl	(%rax), %eax
	.loc 1 113 12
	testb	%al, %al
	je	.L29
.LBB4:
	.loc 1 115 18
	movq	-32(%rbp), %rax
	movzbl	(%rax), %eax
	movb	%al, -9(%rbp)
	.loc 1 118 19
	jmp	.L30
.L36:
	.loc 1 120 21
	movq	-24(%rbp), %rax
	movzbl	(%rax), %eax
	.loc 1 120 20
	testb	%al, %al
	jne	.L31
	.loc 1 123 28
	movl	$0, %eax
	jmp	.L18
.L31:
	.loc 1 127 28
	movq	-24(%rbp), %rax
	addq	$1, %rax
	movzbl	(%rax), %eax
	.loc 1 127 20
	cmpb	$45, %al
	jne	.L32
	.loc 1 127 49 discriminator 1
	movq	-24(%rbp), %rax
	addq	$2, %rax
	movzbl	(%rax), %eax
	.loc 1 127 39 discriminator 1
	cmpb	$93, %al
	je	.L32
	.loc 1 129 30
	movq	-24(%rbp), %rax
	movzbl	(%rax), %eax
	.loc 1 129 24
	cmpb	%al, -9(%rbp)
	jl	.L33
	.loc 1 129 54 discriminator 1
	movq	-24(%rbp), %rax
	addq	$2, %rax
	movzbl	(%rax), %eax
	.loc 1 129 39 discriminator 1
	cmpb	%al, -9(%rbp)
	jg	.L33
	.loc 1 131 33
	movl	$1, -8(%rbp)
	.loc 1 132 25
	jmp	.L34
.L33:
	.loc 1 134 29
	addq	$3, -24(%rbp)
	jmp	.L30
.L32:
	.loc 1 139 25
	movq	-24(%rbp), %rax
	movzbl	(%rax), %eax
	.loc 1 139 24
	cmpb	%al, -9(%rbp)
	jne	.L35
	.loc 1 141 33
	movl	$1, -8(%rbp)
	.loc 1 142 25
	jmp	.L34
.L35:
	.loc 1 144 28
	addq	$1, -24(%rbp)
.L30:
	.loc 1 118 20
	movq	-24(%rbp), %rax
	movzbl	(%rax), %eax
	.loc 1 118 19
	cmpb	$93, %al
	jne	.L36
.L34:
	.loc 1 149 19
	jmp	.L37
.L39:
	.loc 1 151 24
	addq	$1, -24(%rbp)
.L37:
	.loc 1 149 20
	movq	-24(%rbp), %rax
	movzbl	(%rax), %eax
	.loc 1 149 19
	cmpb	$93, %al
	je	.L38
	.loc 1 149 39 discriminator 1
	movq	-24(%rbp), %rax
	movzbl	(%rax), %eax
	.loc 1 149 36 discriminator 1
	testb	%al, %al
	jne	.L39
.L38:
	.loc 1 155 17
	movq	-24(%rbp), %rax
	movzbl	(%rax), %eax
	.loc 1 155 16
	testb	%al, %al
	jne	.L40
	.loc 1 157 24
	movl	$0, %eax
	jmp	.L18
.L40:
	.loc 1 161 16
	cmpl	$0, -4(%rbp)
	je	.L41
	.loc 1 163 27
	cmpl	$0, -8(%rbp)
	sete	%al
	.loc 1 163 25
	movzbl	%al, %eax
	movl	%eax, -8(%rbp)
.L41:
	.loc 1 167 16
	cmpl	$0, -8(%rbp)
	jne	.L42
	.loc 1 169 24
	movl	$0, %eax
	jmp	.L18
.L42:
	.loc 1 173 24
	movl	$1, %eax
	jmp	.L18
.L29:
.LBE4:
	.loc 1 179 20
	movl	$0, %eax
	jmp	.L18
.L23:
.LBE3:
	.loc 1 186 14
	movq	-24(%rbp), %rax
	movzbl	(%rax), %eax
	.loc 1 186 13
	cmpb	$63, %al
	je	.L43
	.loc 1 186 33 discriminator 1
	movq	-24(%rbp), %rax
	movzbl	(%rax), %edx
	.loc 1 186 45 discriminator 1
	movq	-32(%rbp), %rax
	movzbl	(%rax), %eax
	.loc 1 186 30 discriminator 1
	cmpb	%al, %dl
	jne	.L44
.L43:
	.loc 1 189 13
	movq	-32(%rbp), %rax
	movzbl	(%rax), %eax
	.loc 1 189 12
	testb	%al, %al
	jne	.L46
	.loc 1 191 20
	movl	$0, %eax
	jmp	.L18
.L44:
	.loc 1 196 16
	movl	$0, %eax
	jmp	.L18
.L46:
	.loc 1 200 12
	movq	-32(%rbp), %rax
	leaq	1(%rax), %rdx
	movq	-24(%rbp), %rax
	addq	$1, %rax
	movq	%rdx, %rsi
	movq	%rax, %rdi
	call	glob_match
.L18:
	.loc 1 201 1
	leave
	.cfi_def_cfa 7, 8
	ret
	.cfi_endproc
.LFE8:
	.size	glob_match, .-glob_match
	.globl	cleanup_blocklist
	.type	cleanup_blocklist, @function
cleanup_blocklist:
.LFB9:
	.loc 1 204 1
	.cfi_startproc
	endbr64
	pushq	%rbp
	.cfi_def_cfa_offset 16
	.cfi_offset 6, -16
	movq	%rsp, %rbp
	.cfi_def_cfa_register 6
	subq	$32, %rsp
	movq	%rdi, -24(%rbp)
	.loc 1 205 7
	cmpq	$0, -24(%rbp)
	jne	.L48
	.loc 1 205 23 discriminator 1
	movq	_blocklist(%rip), %rax
	movq	%rax, -24(%rbp)
.L48:
.LBB5:
	.loc 1 207 13
	movl	$0, -4(%rbp)
	.loc 1 207 5
	jmp	.L49
.L50:
	.loc 1 208 16 discriminator 3
	movq	-24(%rbp), %rax
	movq	(%rax), %rax
	.loc 1 208 26 discriminator 3
	movl	-4(%rbp), %edx
	movslq	%edx, %rdx
	salq	$3, %rdx
	addq	%rdx, %rax
	.loc 1 208 9 discriminator 3
	movq	(%rax), %rax
	movq	%rax, %rdi
	call	free@PLT
	.loc 1 209 11 discriminator 3
	movq	-24(%rbp), %rax
	movq	(%rax), %rax
	.loc 1 209 21 discriminator 3
	movl	-4(%rbp), %edx
	movslq	%edx, %rdx
	salq	$3, %rdx
	addq	%rdx, %rax
	.loc 1 209 25 discriminator 3
	movq	$0, (%rax)
	.loc 1 207 42 discriminator 3
	addl	$1, -4(%rbp)
.L49:
	.loc 1 207 24 discriminator 1
	movq	-24(%rbp), %rax
	movl	8(%rax), %eax
	.loc 1 207 5 discriminator 1
	cmpl	%eax, -4(%rbp)
	jl	.L50
.LBE5:
	.loc 1 212 5
	movq	-24(%rbp), %rax
	movq	%rax, %rdi
	call	free@PLT
	.loc 1 213 8
	movq	$0, -24(%rbp)
	.loc 1 215 1
	nop
	leave
	.cfi_def_cfa 7, 8
	ret
	.cfi_endproc
.LFE9:
	.size	cleanup_blocklist, .-cleanup_blocklist
.Letext0:
	.file 2 "/usr/lib/gcc/x86_64-linux-gnu/9/include/stddef.h"
	.file 3 "/usr/include/x86_64-linux-gnu/bits/types.h"
	.file 4 "/usr/include/x86_64-linux-gnu/bits/types/struct_FILE.h"
	.file 5 "/usr/include/x86_64-linux-gnu/bits/types/FILE.h"
	.file 6 "/usr/include/stdio.h"
	.file 7 "/usr/include/x86_64-linux-gnu/bits/sys_errlist.h"
	.file 8 "/usr/include/x86_64-linux-gnu/bits/types/struct_timespec.h"
	.file 9 "/usr/include/x86_64-linux-gnu/bits/stdint-uintn.h"
	.file 10 "/usr/include/unistd.h"
	.file 11 "/usr/include/x86_64-linux-gnu/bits/getopt_core.h"
	.file 12 "/usr/include/errno.h"
	.file 13 "/usr/include/x86_64-linux-gnu/bits/sockaddr.h"
	.file 14 "/usr/include/x86_64-linux-gnu/bits/socket.h"
	.file 15 "/usr/include/netinet/in.h"
	.file 16 "/usr/include/x86_64-linux-gnu/bits/stat.h"
	.file 17 "/usr/include/signal.h"
	.file 18 "/usr/include/time.h"
	.file 19 "includes/blocklist.h"
	.section	.note.GNU-stack,"",@progbits
	.section	.note.gnu.property,"a"
	.align 8
	.long	 1f - 0f
	.long	 4f - 1f
	.long	 5
0:
	.string	 "GNU"
1:
	.align 8
	.long	 0xc0000002
	.long	 3f - 2f
2:
	.long	 0x3
3:
	.align 8
4:
