	.file	"cache.c"
	.text
.Ltext0:
	.local	global_table
	.comm	global_table,8,8
	.globl	init_cache_table
	.type	init_cache_table, @function
init_cache_table:
.LFB294:
	.file 1 "src/cache.c"
	.loc 1 13 1
	.cfi_startproc
	endbr64
	pushq	%rbp
	.cfi_def_cfa_offset 16
	.cfi_offset 6, -16
	movq	%rsp, %rbp
	.cfi_def_cfa_register 6
	subq	$32, %rsp
	movl	%edi, -20(%rbp)
	.loc 1 14 8
	cmpl	$0, -20(%rbp)
	je	.L2
	.loc 1 16 24
	movl	$8232, %edi
	call	malloc@PLT
	.loc 1 16 22
	movq	%rax, global_table(%rip)
	.loc 1 17 13
	movq	global_table(%rip), %rax
	.loc 1 17 12
	testq	%rax, %rax
	jne	.L3
	.loc 1 18 20
	movl	$0, %eax
	jmp	.L4
.L3:
	.loc 1 20 28
	movq	global_table(%rip), %rax
	.loc 1 20 9
	movl	$8192, %edx
	movl	$0, %esi
	movq	%rax, %rdi
	call	memset@PLT
	.loc 1 21 41
	movq	global_table(%rip), %rax
	.loc 1 21 9
	addq	$8192, %rax
	movl	$0, %esi
	movq	%rax, %rdi
	call	pthread_mutex_init@PLT
	.loc 1 23 16
	movq	global_table(%rip), %rax
	jmp	.L4
.L2:
.LBB2:
	.loc 1 27 32
	movl	$8232, %edi
	call	malloc@PLT
	movq	%rax, -8(%rbp)
	.loc 1 28 12
	cmpq	$0, -8(%rbp)
	jne	.L5
	.loc 1 29 20
	movl	$0, %eax
	jmp	.L4
.L5:
	.loc 1 31 21
	movq	-8(%rbp), %rax
	.loc 1 31 9
	movl	$8192, %edx
	movl	$0, %esi
	movq	%rax, %rdi
	call	memset@PLT
	.loc 1 32 9
	movq	-8(%rbp), %rax
	addq	$8192, %rax
	movl	$0, %esi
	movq	%rax, %rdi
	call	pthread_mutex_init@PLT
	.loc 1 34 16
	movq	-8(%rbp), %rax
.L4:
.LBE2:
	.loc 1 36 1
	leave
	.cfi_def_cfa 7, 8
	ret
	.cfi_endproc
.LFE294:
	.size	init_cache_table, .-init_cache_table
	.globl	hash_index
	.type	hash_index, @function
hash_index:
.LFB295:
	.loc 1 39 1
	.cfi_startproc
	endbr64
	pushq	%rbp
	.cfi_def_cfa_offset 16
	.cfi_offset 6, -16
	movq	%rsp, %rbp
	.cfi_def_cfa_register 6
	movq	%rdi, -24(%rbp)
	.loc 1 41 18
	movl	$0, -8(%rbp)
.LBB3:
	.loc 1 42 14
	movl	$0, -4(%rbp)
	.loc 1 42 5
	jmp	.L7
.L8:
	.loc 1 44 21 discriminator 3
	movl	-8(%rbp), %edx
	movl	%edx, %eax
	sall	$5, %eax
	subl	%edx, %eax
	movl	%eax, %ecx
	.loc 1 44 36 discriminator 3
	movl	-4(%rbp), %eax
	movslq	%eax, %rdx
	movq	-24(%rbp), %rax
	addq	%rdx, %rax
	movzbl	(%rax), %eax
	movsbl	%al, %eax
	.loc 1 44 14 discriminator 3
	addl	%ecx, %eax
	movl	%eax, -8(%rbp)
	.loc 1 42 43 discriminator 3
	addl	$1, -4(%rbp)
.L7:
	.loc 1 42 29 discriminator 1
	movl	-4(%rbp), %eax
	movslq	%eax, %rdx
	movq	-24(%rbp), %rax
	addq	%rdx, %rax
	movzbl	(%rax), %eax
	.loc 1 42 5 discriminator 1
	testb	%al, %al
	jne	.L8
.LBE3:
	.loc 1 46 17
	movl	-8(%rbp), %eax
	andl	$1023, %eax
	.loc 1 47 1
	popq	%rbp
	.cfi_def_cfa 7, 8
	ret
	.cfi_endproc
.LFE295:
	.size	hash_index, .-hash_index
	.section	.rodata
.LC0:
	.string	"./cache"
.LC1:
	.string	"Can't open dir %s\n"
.LC2:
	.string	"%s/%s"
.LC3:
	.string	"cannot stat %s\n"
	.text
	.globl	init_cache
	.type	init_cache, @function
init_cache:
.LFB296:
	.loc 1 50 1
	.cfi_startproc
	endbr64
	pushq	%rbp
	.cfi_def_cfa_offset 16
	.cfi_offset 6, -16
	movq	%rsp, %rbp
	.cfi_def_cfa_register 6
	subq	$464, %rsp
	movq	%rdi, -456(%rbp)
	.loc 1 50 1
	movq	%fs:40, %rax
	movq	%rax, -8(%rbp)
	xorl	%eax, %eax
	.loc 1 51 20
	movq	$0, -448(%rbp)
	.loc 1 54 8
	cmpq	$0, -456(%rbp)
	jne	.L11
	.loc 1 56 22
	movq	global_table(%rip), %rax
	movq	%rax, -448(%rbp)
	jmp	.L12
.L11:
	.loc 1 60 22
	movq	-456(%rbp), %rax
	movq	%rax, -448(%rbp)
.L12:
	.loc 1 65 11
	leaq	.LC0(%rip), %rax
	movq	%rax, -440(%rbp)
	.loc 1 66 16
	movq	-440(%rbp), %rax
	movq	%rax, %rdi
	call	opendir@PLT
	movq	%rax, -432(%rbp)
	.loc 1 66 8
	cmpq	$0, -432(%rbp)
	jne	.L15
	.loc 1 68 9
	movq	stderr(%rip), %rax
	movq	-440(%rbp), %rdx
	leaq	.LC1(%rip), %rsi
	movq	%rax, %rdi
	movl	$0, %eax
	call	fprintf@PLT
	.loc 1 69 16
	movl	$-1, %eax
	jmp	.L10
.L19:
.LBB4:
	.loc 1 77 47
	movq	-424(%rbp), %rax
	leaq	19(%rax), %rcx
	.loc 1 77 9
	movq	-440(%rbp), %rdx
	leaq	-272(%rbp), %rax
	leaq	.LC2(%rip), %rsi
	movq	%rax, %rdi
	movl	$0, %eax
	call	sprintf@PLT
	.loc 1 78 13
	leaq	-416(%rbp), %rdx
	leaq	-272(%rbp), %rax
	movq	%rdx, %rsi
	movq	%rax, %rdi
	call	stat@PLT
	.loc 1 78 12
	cmpl	$-1, %eax
	jne	.L16
	.loc 1 80 51
	movq	-424(%rbp), %rax
	leaq	19(%rax), %rdx
	.loc 1 80 13
	movq	stderr(%rip), %rax
	leaq	.LC3(%rip), %rsi
	movq	%rax, %rdi
	movl	$0, %eax
	call	fprintf@PLT
	.loc 1 81 13
	jmp	.L15
.L16:
	.loc 1 83 19
	movl	-392(%rbp), %eax
	.loc 1 83 28
	andl	$61440, %eax
	.loc 1 83 12
	cmpl	$16384, %eax
	je	.L21
	.loc 1 89 36
	movq	-424(%rbp), %rax
	leaq	19(%rax), %rcx
	.loc 1 89 9
	leaq	-272(%rbp), %rax
	movq	%rax, %rdx
	movq	%rcx, %rsi
	movl	$0, %edi
	call	cache_add_existing
	jmp	.L15
.L21:
	.loc 1 85 13
	nop
.L15:
.LBE4:
	.loc 1 74 18
	movq	-432(%rbp), %rax
	movq	%rax, %rdi
	call	readdir@PLT
	movq	%rax, -424(%rbp)
	.loc 1 74 11
	cmpq	$0, -424(%rbp)
	jne	.L19
.L10:
	.loc 1 93 1
	movq	-8(%rbp), %rcx
	xorq	%fs:40, %rcx
	je	.L20
	call	__stack_chk_fail@PLT
.L20:
	leave
	.cfi_def_cfa 7, 8
	ret
	.cfi_endproc
.LFE296:
	.size	init_cache, .-init_cache
	.section	.rodata
	.align 8
.LC4:
	.string	"something you will need to tweak"
.LC5:
	.string	"open"
.LC6:
	.string	"stat"
	.text
	.globl	cache_add_new
	.type	cache_add_new, @function
cache_add_new:
.LFB297:
	.loc 1 96 1
	.cfi_startproc
	endbr64
	pushq	%rbp
	.cfi_def_cfa_offset 16
	.cfi_offset 6, -16
	movq	%rsp, %rbp
	.cfi_def_cfa_register 6
	pushq	%r15
	pushq	%r14
	pushq	%r12
	pushq	%rbx
	subq	$272, %rsp
	.cfi_offset 15, -24
	.cfi_offset 14, -32
	.cfi_offset 12, -40
	.cfi_offset 3, -48
	movq	%rdi, -264(%rbp)
	movq	%rsi, -272(%rbp)
	movq	%rdx, -280(%rbp)
	.loc 1 96 1
	movq	%fs:40, %rax
	movq	%rax, -40(%rbp)
	xorl	%eax, %eax
	movq	%rsp, %rax
	movq	%rax, %r12
	.loc 1 97 20
	movq	$0, -232(%rbp)
	.loc 1 100 8
	cmpq	$0, -264(%rbp)
	jne	.L23
	.loc 1 102 22
	movq	global_table(%rip), %rax
	movq	%rax, -232(%rbp)
	jmp	.L24
.L23:
	.loc 1 106 22
	movq	-264(%rbp), %rax
	movq	%rax, -232(%rbp)
.L24:
	.loc 1 109 14
	movq	-272(%rbp), %rax
	movq	%rax, %rdi
	call	strlen@PLT
	movq	%rax, %rbx
	.loc 1 109 28
	movq	-280(%rbp), %rax
	movq	%rax, %rdi
	call	strlen@PLT
	.loc 1 109 26
	addq	%rbx, %rax
	.loc 1 109 45
	leaq	2(%rax), %rsi
	movq	%rsi, %rax
	.loc 1 109 10
	subq	$1, %rax
	movq	%rax, -224(%rbp)
	movq	%rsi, -304(%rbp)
	movq	$0, -296(%rbp)
	movq	%rsi, %r14
	movl	$0, %r15d
	movl	$16, %eax
	subq	$1, %rax
	addq	%rsi, %rax
	movl	$16, %ebx
	movl	$0, %edx
	divq	%rbx
	imulq	$16, %rax, %rax
	movq	%rax, %rdx
	andq	$-4096, %rdx
	movq	%rsp, %rbx
	subq	%rdx, %rbx
	movq	%rbx, %rdx
.L25:
	cmpq	%rdx, %rsp
	je	.L26
	subq	$4096, %rsp
	orq	$0, 4088(%rsp)
	jmp	.L25
.L26:
	movq	%rax, %rdx
	andl	$4095, %edx
	subq	%rdx, %rsp
	movq	%rax, %rdx
	andl	$4095, %edx
	testq	%rdx, %rdx
	je	.L27
	andl	$4095, %eax
	subq	$8, %rax
	addq	%rsp, %rax
	orq	$0, (%rax)
.L27:
	movq	%rsp, %rax
	addq	$0, %rax
	movq	%rax, -216(%rbp)
	.loc 1 110 13
	movq	-280(%rbp), %rcx
	movq	-272(%rbp), %rdx
	movq	-216(%rbp), %rax
	movq	%rcx, %r8
	movq	%rdx, %rcx
	leaq	.LC2(%rip), %rdx
	movq	%rax, %rdi
	movl	$0, %eax
	call	snprintf@PLT
	movl	%eax, -252(%rbp)
	.loc 1 111 11
	movl	-252(%rbp), %eax
	movslq	%eax, %rbx
	.loc 1 111 14
	movq	-216(%rbp), %rax
	movq	%rax, %rdi
	call	strlen@PLT
	.loc 1 111 8
	cmpq	%rax, %rbx
	je	.L28
	.loc 1 112 9
	leaq	.LC4(%rip), %rdi
	call	puts@PLT
.L28:
	.loc 1 114 34
	movq	-216(%rbp), %rax
	movq	%rax, %rdi
	call	strlen@PLT
	.loc 1 114 21
	movl	%eax, %edx
	movq	-216(%rbp), %rax
	movl	%edx, %esi
	movq	%rax, %rdi
	call	str2md5
	movq	%rax, -208(%rbp)
	.loc 1 116 5
	movq	-208(%rbp), %rdx
	leaq	-240(%rbp), %rax
	movq	%rdx, %rcx
	leaq	.LC0(%rip), %rdx
	leaq	.LC2(%rip), %rsi
	movq	%rax, %rdi
	movl	$0, %eax
	call	asprintf@PLT
	.loc 1 118 28
	movl	$4152, %edi
	call	malloc@PLT
	movq	%rax, -200(%rbp)
	.loc 1 119 8
	cmpq	$0, -200(%rbp)
	jne	.L29
	.loc 1 120 16
	movl	$-1, %eax
	jmp	.L30
.L29:
	.loc 1 121 19
	movq	-240(%rbp), %rax
	movl	$438, %edx
	movl	$66, %esi
	movq	%rax, %rdi
	movl	$0, %eax
	call	open@PLT
	movl	%eax, -248(%rbp)
	.loc 1 122 8
	cmpl	$0, -248(%rbp)
	jns	.L31
	.loc 1 124 9
	leaq	.LC5(%rip), %rdi
	call	perror@PLT
	.loc 1 125 9
	movq	-200(%rbp), %rax
	movq	%rax, %rdi
	call	free@PLT
	.loc 1 126 16
	movl	$-1, %eax
	jmp	.L30
.L31:
	.loc 1 129 18
	movq	-200(%rbp), %rax
	.loc 1 129 5
	movq	-208(%rbp), %rcx
	movl	$32, %edx
	movq	%rcx, %rsi
	movq	%rax, %rdi
	call	strncpy@PLT
	.loc 1 130 42
	movq	-200(%rbp), %rax
	movb	$0, 32(%rax)
	.loc 1 131 18
	movq	-200(%rbp), %rax
	leaq	33(%rax), %rcx
	.loc 1 131 5
	movq	-280(%rbp), %rax
	movl	$4095, %edx
	movq	%rax, %rsi
	movq	%rcx, %rdi
	call	strncpy@PLT
	.loc 1 132 35
	movq	-200(%rbp), %rax
	movb	$0, 4128(%rax)
	.loc 1 135 9
	movq	-240(%rbp), %rax
	leaq	-192(%rbp), %rdx
	movq	%rdx, %rsi
	movq	%rax, %rdi
	call	stat@PLT
	.loc 1 135 8
	testl	%eax, %eax
	je	.L32
	.loc 1 137 9
	leaq	.LC6(%rip), %rdi
	call	perror@PLT
	.loc 1 138 9
	movl	-248(%rbp), %eax
	movl	%eax, %edi
	call	close@PLT
	.loc 1 139 9
	movq	-200(%rbp), %rax
	movq	%rax, %rdi
	call	free@PLT
	.loc 1 140 9
	movq	-240(%rbp), %rax
	movq	%rax, %rdi
	call	free@PLT
	.loc 1 141 16
	movl	$-1, %eax
	jmp	.L30
.L32:
	.loc 1 144 27
	movq	-88(%rbp), %rax
	movq	%rax, %rdx
	.loc 1 144 22
	movq	-200(%rbp), %rax
	movq	%rdx, 4136(%rax)
	.loc 1 146 26
	movq	-208(%rbp), %rax
	movq	%rax, %rdi
	call	hash_index
	movl	%eax, -244(%rbp)
	.loc 1 148 5
	movq	-232(%rbp), %rax
	addq	$8192, %rax
	movq	%rax, %rdi
	call	pthread_mutex_lock@PLT
	.loc 1 150 30
	movq	-232(%rbp), %rax
	movl	-244(%rbp), %edx
	movq	(%rax,%rdx,8), %rax
	.loc 1 150 8
	testq	%rax, %rax
	jne	.L33
	.loc 1 152 38
	movq	-232(%rbp), %rax
	movl	-244(%rbp), %edx
	movq	-200(%rbp), %rcx
	movq	%rcx, (%rax,%rdx,8)
	jmp	.L34
.L33:
	.loc 1 156 44
	movq	-232(%rbp), %rax
	movl	-244(%rbp), %edx
	movq	(%rax,%rdx,8), %rdx
	.loc 1 156 21
	movq	-200(%rbp), %rax
	movq	%rdx, 4144(%rax)
	.loc 1 157 38
	movq	-232(%rbp), %rax
	movl	-244(%rbp), %edx
	movq	-200(%rbp), %rcx
	movq	%rcx, (%rax,%rdx,8)
.L34:
	.loc 1 160 5
	movq	-232(%rbp), %rax
	addq	$8192, %rax
	movq	%rax, %rdi
	call	pthread_mutex_unlock@PLT
	.loc 1 162 12
	movl	-248(%rbp), %eax
.L30:
	movq	%r12, %rsp
	.loc 1 163 1
	movq	-40(%rbp), %rbx
	xorq	%fs:40, %rbx
	je	.L36
	call	__stack_chk_fail@PLT
.L36:
	leaq	-32(%rbp), %rsp
	popq	%rbx
	popq	%r12
	popq	%r14
	popq	%r15
	popq	%rbp
	.cfi_def_cfa 7, 8
	ret
	.cfi_endproc
.LFE297:
	.size	cache_add_new, .-cache_add_new
	.section	.rodata
.LC7:
	.string	"cannot open file"
.LC8:
	.string	"cannot stat"
	.text
	.globl	cache_add_existing
	.type	cache_add_existing, @function
cache_add_existing:
.LFB298:
	.loc 1 166 1
	.cfi_startproc
	endbr64
	pushq	%rbp
	.cfi_def_cfa_offset 16
	.cfi_offset 6, -16
	movq	%rsp, %rbp
	.cfi_def_cfa_register 6
	subq	$224, %rsp
	movq	%rdi, -200(%rbp)
	movq	%rsi, -208(%rbp)
	movq	%rdx, -216(%rbp)
	.loc 1 166 1
	movq	%fs:40, %rax
	movq	%rax, -8(%rbp)
	xorl	%eax, %eax
	.loc 1 167 20
	movq	$0, -176(%rbp)
	.loc 1 172 8
	cmpq	$0, -200(%rbp)
	jne	.L38
	.loc 1 174 22
	movq	global_table(%rip), %rax
	movq	%rax, -176(%rbp)
	jmp	.L39
.L38:
	.loc 1 178 22
	movq	-200(%rbp), %rax
	movq	%rax, -176(%rbp)
.L39:
	.loc 1 181 28
	movl	$4152, %edi
	call	malloc@PLT
	movq	%rax, -168(%rbp)
	.loc 1 182 8
	cmpq	$0, -168(%rbp)
	je	.L48
	.loc 1 185 19
	movq	-216(%rbp), %rax
	movl	$438, %esi
	movq	%rax, %rdi
	movl	$0, %eax
	call	open@PLT
	movl	%eax, -184(%rbp)
	.loc 1 186 8
	cmpl	$0, -184(%rbp)
	jns	.L42
	.loc 1 188 9
	movq	-168(%rbp), %rax
	movq	%rax, %rdi
	call	free@PLT
	.loc 1 189 9
	movq	stderr(%rip), %rax
	movq	%rax, %rcx
	movl	$16, %edx
	movl	$1, %esi
	leaq	.LC7(%rip), %rdi
	call	fwrite@PLT
	.loc 1 190 9
	jmp	.L37
.L42:
	.loc 1 192 9
	leaq	-160(%rbp), %rdx
	movq	-216(%rbp), %rax
	movq	%rdx, %rsi
	movq	%rax, %rdi
	call	stat@PLT
	.loc 1 192 8
	testl	%eax, %eax
	je	.L43
	.loc 1 194 9
	movq	stderr(%rip), %rax
	movq	%rax, %rcx
	movl	$11, %edx
	movl	$1, %esi
	leaq	.LC8(%rip), %rdi
	call	fwrite@PLT
.L43:
	.loc 1 197 17
	movq	-168(%rbp), %rax
	.loc 1 197 5
	movq	-208(%rbp), %rdx
	movq	%rdx, %rsi
	movq	%rax, %rdi
	call	strcpy@PLT
	.loc 1 198 17
	movq	-168(%rbp), %rax
	leaq	33(%rax), %rdx
	.loc 1 198 5
	movq	-208(%rbp), %rax
	movq	%rax, %rsi
	movq	%rdx, %rdi
	call	strcpy@PLT
	.loc 1 200 27
	movq	-56(%rbp), %rax
	movq	%rax, %rdx
	.loc 1 200 22
	movq	-168(%rbp), %rax
	movq	%rdx, 4136(%rax)
	.loc 1 201 17
	movq	-168(%rbp), %rax
	movq	$0, 4144(%rax)
	.loc 1 203 26
	movq	-208(%rbp), %rax
	movq	%rax, %rdi
	call	hash_index
	movl	%eax, -180(%rbp)
	.loc 1 205 5
	movq	-176(%rbp), %rax
	addq	$8192, %rax
	movq	%rax, %rdi
	call	pthread_mutex_lock@PLT
	.loc 1 207 30
	movq	-176(%rbp), %rax
	movl	-180(%rbp), %edx
	movq	(%rax,%rdx,8), %rax
	.loc 1 207 8
	testq	%rax, %rax
	jne	.L44
	.loc 1 209 38
	movq	-176(%rbp), %rax
	movl	-180(%rbp), %edx
	movq	-168(%rbp), %rcx
	movq	%rcx, (%rax,%rdx,8)
	jmp	.L45
.L44:
	.loc 1 213 44
	movq	-176(%rbp), %rax
	movl	-180(%rbp), %edx
	movq	(%rax,%rdx,8), %rdx
	.loc 1 213 21
	movq	-168(%rbp), %rax
	movq	%rdx, 4144(%rax)
	.loc 1 214 38
	movq	-176(%rbp), %rax
	movl	-180(%rbp), %edx
	movq	-168(%rbp), %rcx
	movq	%rcx, (%rax,%rdx,8)
.L45:
	.loc 1 216 5
	movl	-184(%rbp), %eax
	movl	%eax, %edi
	call	close@PLT
	.loc 1 217 5
	movq	-176(%rbp), %rax
	addq	$8192, %rax
	movq	%rax, %rdi
	call	pthread_mutex_unlock@PLT
	jmp	.L37
.L48:
	.loc 1 183 9
	nop
.L37:
	.loc 1 218 1
	movq	-8(%rbp), %rax
	xorq	%fs:40, %rax
	je	.L47
	call	__stack_chk_fail@PLT
.L47:
	leave
	.cfi_def_cfa 7, 8
	ret
	.cfi_endproc
.LFE298:
	.size	cache_add_existing, .-cache_add_existing
	.section	.rodata
	.align 8
.LC9:
	.string	"\033[33m[+] (%d) File is %lu sec long (<%ld)!\n\033[0m"
.LC10:
	.string	"file opening from cache"
	.align 8
.LC11:
	.string	"\033[33m[+] (%d) File is %lu sec long, (Need to fetch newer one) (>%ld)!\n\033[0m"
	.text
	.globl	cache_lookup
	.type	cache_lookup, @function
cache_lookup:
.LFB299:
	.loc 1 221 1
	.cfi_startproc
	endbr64
	pushq	%rbp
	.cfi_def_cfa_offset 16
	.cfi_offset 6, -16
	movq	%rsp, %rbp
	.cfi_def_cfa_register 6
	pushq	%r15
	pushq	%r14
	pushq	%r12
	pushq	%rbx
	addq	$-128, %rsp
	.cfi_offset 15, -24
	.cfi_offset 14, -32
	.cfi_offset 12, -40
	.cfi_offset 3, -48
	movq	%rdi, -120(%rbp)
	movq	%rsi, -128(%rbp)
	movq	%rdx, -136(%rbp)
	movq	%rcx, -144(%rbp)
	.loc 1 221 1
	movq	%fs:40, %rax
	movq	%rax, -40(%rbp)
	xorl	%eax, %eax
	movq	%rsp, %rax
	movq	%rax, %r12
	.loc 1 222 20
	movq	$0, -72(%rbp)
	.loc 1 223 9
	movl	$-1, -108(%rbp)
	.loc 1 224 8
	cmpq	$0, -120(%rbp)
	jne	.L50
	.loc 1 226 22
	movq	global_table(%rip), %rax
	movq	%rax, -72(%rbp)
	jmp	.L51
.L50:
	.loc 1 230 22
	movq	-120(%rbp), %rax
	movq	%rax, -72(%rbp)
.L51:
	.loc 1 233 14
	movq	-128(%rbp), %rax
	movq	%rax, %rdi
	call	strlen@PLT
	movq	%rax, %rbx
	.loc 1 233 28
	movq	-136(%rbp), %rax
	movq	%rax, %rdi
	call	strlen@PLT
	.loc 1 233 26
	addq	%rbx, %rax
	.loc 1 233 45
	leaq	2(%rax), %rsi
	movq	%rsi, %rax
	.loc 1 233 10
	subq	$1, %rax
	movq	%rax, -64(%rbp)
	movq	%rsi, -160(%rbp)
	movq	$0, -152(%rbp)
	movq	%rsi, %r14
	movl	$0, %r15d
	movl	$16, %eax
	subq	$1, %rax
	addq	%rsi, %rax
	movl	$16, %ecx
	movl	$0, %edx
	divq	%rcx
	imulq	$16, %rax, %rax
	movq	%rax, %rdx
	andq	$-4096, %rdx
	movq	%rsp, %rcx
	subq	%rdx, %rcx
	movq	%rcx, %rdx
.L52:
	cmpq	%rdx, %rsp
	je	.L53
	subq	$4096, %rsp
	orq	$0, 4088(%rsp)
	jmp	.L52
.L53:
	movq	%rax, %rdx
	andl	$4095, %edx
	subq	%rdx, %rsp
	movq	%rax, %rdx
	andl	$4095, %edx
	testq	%rdx, %rdx
	je	.L54
	andl	$4095, %eax
	subq	$8, %rax
	addq	%rsp, %rax
	orq	$0, (%rax)
.L54:
	movq	%rsp, %rax
	addq	$0, %rax
	movq	%rax, -56(%rbp)
	.loc 1 234 13
	movq	-136(%rbp), %rcx
	movq	-128(%rbp), %rdx
	movq	-56(%rbp), %rax
	movq	%rcx, %r8
	movq	%rdx, %rcx
	leaq	.LC2(%rip), %rdx
	movq	%rax, %rdi
	movl	$0, %eax
	call	snprintf@PLT
	movl	%eax, -104(%rbp)
	.loc 1 235 11
	movl	-104(%rbp), %eax
	movslq	%eax, %rbx
	.loc 1 235 14
	movq	-56(%rbp), %rax
	movq	%rax, %rdi
	call	strlen@PLT
	.loc 1 235 8
	cmpq	%rax, %rbx
	je	.L55
	.loc 1 236 9
	leaq	.LC4(%rip), %rdi
	call	puts@PLT
.L55:
	.loc 1 238 34
	movq	-56(%rbp), %rax
	movq	%rax, %rdi
	call	strlen@PLT
	.loc 1 238 21
	movl	%eax, %edx
	movq	-56(%rbp), %rax
	movl	%edx, %esi
	movq	%rax, %rdi
	call	str2md5
	movq	%rax, -48(%rbp)
	.loc 1 239 26
	movq	-48(%rbp), %rax
	movq	%rax, %rdi
	call	hash_index
	movl	%eax, -100(%rbp)
	.loc 1 240 20
	movq	-72(%rbp), %rax
	movl	-100(%rbp), %edx
	movq	(%rax,%rdx,8), %rax
	movq	%rax, -80(%rbp)
	.loc 1 241 5
	movq	-72(%rbp), %rax
	addq	$8192, %rax
	movq	%rax, %rdi
	call	pthread_mutex_lock@PLT
	.loc 1 242 11
	jmp	.L56
.L62:
	.loc 1 244 25
	movq	-80(%rbp), %rax
	.loc 1 244 13
	movq	-48(%rbp), %rdx
	movq	%rdx, %rsi
	movq	%rax, %rdi
	call	strcmp@PLT
	.loc 1 244 12
	testl	%eax, %eax
	jne	.L57
.LBB5:
	.loc 1 247 13
	leaq	-96(%rbp), %rax
	movq	%rax, %rdi
	call	time@PLT
	.loc 1 250 66
	movq	-80(%rbp), %rdx
	.loc 1 250 13
	leaq	-88(%rbp), %rax
	movq	%rdx, %rcx
	leaq	.LC0(%rip), %rdx
	leaq	.LC2(%rip), %rsi
	movq	%rax, %rdi
	movl	$0, %eax
	call	asprintf@PLT
	.loc 1 252 30
	movq	-96(%rbp), %rax
	movq	%rax, %rdx
	.loc 1 252 37
	movq	-80(%rbp), %rax
	movq	4136(%rax), %rax
	.loc 1 252 30
	subq	%rax, %rdx
	.loc 1 252 49
	movq	-144(%rbp), %rax
	.loc 1 252 16
	cmpq	%rax, %rdx
	ja	.L58
	.loc 1 254 17
	movq	-96(%rbp), %rax
	movq	%rax, %rdx
	.loc 1 254 105
	movq	-80(%rbp), %rax
	movq	4136(%rax), %rax
	.loc 1 254 17
	movq	%rdx, %rbx
	subq	%rax, %rbx
	call	gettid@PLT
	movl	%eax, %esi
	movq	-144(%rbp), %rax
	movq	%rax, %rcx
	movq	%rbx, %rdx
	leaq	.LC9(%rip), %rdi
	movl	$0, %eax
	call	printf@PLT
	.loc 1 255 27
	movq	-88(%rbp), %rax
	movl	$0, %esi
	movq	%rax, %rdi
	movl	$0, %eax
	call	open@PLT
	movl	%eax, -108(%rbp)
	.loc 1 256 20
	cmpl	$0, -108(%rbp)
	jns	.L59
	.loc 1 258 21
	leaq	.LC10(%rip), %rdi
	call	perror@PLT
.L59:
	.loc 1 260 17
	movq	-72(%rbp), %rax
	addq	$8192, %rax
	movq	%rax, %rdi
	call	pthread_mutex_unlock@PLT
	.loc 1 261 24
	movl	-108(%rbp), %eax
	jmp	.L61
.L58:
	.loc 1 266 17
	movq	-96(%rbp), %rax
	movq	%rax, %rdx
	.loc 1 266 132
	movq	-80(%rbp), %rax
	movq	4136(%rax), %rax
	.loc 1 266 17
	movq	%rdx, %rbx
	subq	%rax, %rbx
	call	gettid@PLT
	movl	%eax, %esi
	movq	-144(%rbp), %rax
	movq	%rax, %rcx
	movq	%rbx, %rdx
	leaq	.LC11(%rip), %rdi
	movl	$0, %eax
	call	printf@PLT
	.loc 1 267 17
	movq	-72(%rbp), %rax
	addq	$8192, %rax
	movq	%rax, %rdi
	call	pthread_mutex_unlock@PLT
	.loc 1 268 17
	movq	-88(%rbp), %rax
	movq	%rax, %rdi
	call	remove@PLT
	.loc 1 269 24
	movl	-108(%rbp), %eax
	jmp	.L61
.L57:
.LBE5:
	.loc 1 272 15
	movq	-80(%rbp), %rax
	movq	4144(%rax), %rax
	movq	%rax, -80(%rbp)
.L56:
	.loc 1 242 11
	cmpq	$0, -80(%rbp)
	jne	.L62
	.loc 1 274 5
	movq	-72(%rbp), %rax
	addq	$8192, %rax
	movq	%rax, %rdi
	call	pthread_mutex_unlock@PLT
	.loc 1 275 12
	movl	-108(%rbp), %eax
.L61:
	movq	%r12, %rsp
	.loc 1 276 1 discriminator 1
	movq	-40(%rbp), %rcx
	xorq	%fs:40, %rcx
	je	.L64
	.loc 1 276 1 is_stmt 0
	call	__stack_chk_fail@PLT
.L64:
	leaq	-32(%rbp), %rsp
	popq	%rbx
	popq	%r12
	popq	%r14
	popq	%r15
	popq	%rbp
	.cfi_def_cfa 7, 8
	ret
	.cfi_endproc
.LFE299:
	.size	cache_lookup, .-cache_lookup
	.section	.rodata
.LC12:
	.string	"%02x"
	.text
	.globl	str2md5
	.type	str2md5, @function
str2md5:
.LFB300:
	.loc 1 279 1 is_stmt 1
	.cfi_startproc
	endbr64
	pushq	%rbp
	.cfi_def_cfa_offset 16
	.cfi_offset 6, -16
	movq	%rsp, %rbp
	.cfi_def_cfa_register 6
	subq	$80, %rsp
	movq	%rdi, -72(%rbp)
	movl	%esi, -76(%rbp)
	.loc 1 279 1
	movq	%fs:40, %rax
	movq	%rax, -8(%rbp)
	xorl	%eax, %eax
	.loc 1 281 27
	call	EVP_MD_CTX_new@PLT
	movq	%rax, -56(%rbp)
	.loc 1 282 24
	call	EVP_md5@PLT
	movq	%rax, -48(%rbp)
	.loc 1 283 5
	movq	-48(%rbp), %rcx
	movq	-56(%rbp), %rax
	movl	$0, %edx
	movq	%rcx, %rsi
	movq	%rax, %rdi
	call	EVP_DigestInit_ex@PLT
	.loc 1 285 25
	movl	$33, %edi
	call	malloc@PLT
	movq	%rax, -40(%rbp)
	.loc 1 288 11
	jmp	.L66
.L69:
	.loc 1 290 12
	cmpl	$512, -76(%rbp)
	jle	.L67
	.loc 1 292 13
	movq	-72(%rbp), %rcx
	movq	-56(%rbp), %rax
	movl	$512, %edx
	movq	%rcx, %rsi
	movq	%rax, %rdi
	call	EVP_DigestUpdate@PLT
	jmp	.L68
.L67:
	.loc 1 296 13
	movl	-76(%rbp), %eax
	movslq	%eax, %rdx
	movq	-72(%rbp), %rcx
	movq	-56(%rbp), %rax
	movq	%rcx, %rsi
	movq	%rax, %rdi
	call	EVP_DigestUpdate@PLT
.L68:
	.loc 1 298 16
	subl	$512, -76(%rbp)
	.loc 1 299 13
	addq	$512, -72(%rbp)
.L66:
	.loc 1 288 11
	cmpl	$0, -76(%rbp)
	jg	.L69
	.loc 1 301 5
	leaq	-64(%rbp), %rdx
	leaq	-32(%rbp), %rcx
	movq	-56(%rbp), %rax
	movq	%rcx, %rsi
	movq	%rax, %rdi
	call	EVP_DigestFinal_ex@PLT
	.loc 1 302 5
	movq	-56(%rbp), %rax
	movq	%rax, %rdi
	call	EVP_MD_CTX_free@PLT
.LBB6:
	.loc 1 304 14
	movl	$0, -60(%rbp)
	.loc 1 304 5
	jmp	.L70
.L71:
	.loc 1 306 69 discriminator 3
	movl	-60(%rbp), %eax
	cltq
	movzbl	-32(%rbp,%rax), %eax
	.loc 1 306 9 discriminator 3
	movzbl	%al, %eax
	.loc 1 306 26 discriminator 3
	movl	-60(%rbp), %edx
	addl	%edx, %edx
	movslq	%edx, %rcx
	.loc 1 306 9 discriminator 3
	movq	-40(%rbp), %rdx
	leaq	(%rcx,%rdx), %rdi
	movl	%eax, %ecx
	leaq	.LC12(%rip), %rdx
	movl	$32, %esi
	movl	$0, %eax
	call	snprintf@PLT
	.loc 1 304 33 discriminator 3
	addl	$1, -60(%rbp)
.L70:
	.loc 1 304 23 discriminator 1
	movl	-64(%rbp), %eax
	.loc 1 304 5 discriminator 1
	cmpl	%eax, -60(%rbp)
	jl	.L71
.LBE6:
	.loc 1 308 12
	movq	-40(%rbp), %rax
	.loc 1 309 1
	movq	-8(%rbp), %rsi
	xorq	%fs:40, %rsi
	je	.L73
	call	__stack_chk_fail@PLT
.L73:
	leave
	.cfi_def_cfa 7, 8
	ret
	.cfi_endproc
.LFE300:
	.size	str2md5, .-str2md5
	.globl	cleanup_cache
	.type	cleanup_cache, @function
cleanup_cache:
.LFB301:
	.loc 1 312 1
	.cfi_startproc
	endbr64
	pushq	%rbp
	.cfi_def_cfa_offset 16
	.cfi_offset 6, -16
	movq	%rsp, %rbp
	.cfi_def_cfa_register 6
	subq	$48, %rsp
	movq	%rdi, -40(%rbp)
	.loc 1 313 20
	movq	$0, -24(%rbp)
	.loc 1 314 9
	movl	$-1, -28(%rbp)
	.loc 1 315 8
	cmpq	$0, -40(%rbp)
	jne	.L75
	.loc 1 317 22
	movq	global_table(%rip), %rax
	movq	%rax, -24(%rbp)
	jmp	.L76
.L75:
	.loc 1 321 22
	movq	-40(%rbp), %rax
	movq	%rax, -24(%rbp)
.L76:
	.loc 1 325 9
	movl	$0, -32(%rbp)
	.loc 1 326 12
	movl	$0, -32(%rbp)
	.loc 1 326 5
	jmp	.L77
.L81:
.LBB7:
	.loc 1 328 15
	movq	-24(%rbp), %rax
	movl	-32(%rbp), %edx
	movslq	%edx, %rdx
	movq	(%rax,%rdx,8), %rax
	movq	%rax, -16(%rbp)
	.loc 1 329 24
	movq	-16(%rbp), %rax
	movq	%rax, -8(%rbp)
	.loc 1 330 12
	cmpq	$0, -16(%rbp)
	je	.L78
	.loc 1 330 27 discriminator 1
	movq	-16(%rbp), %rax
	movq	4144(%rax), %rax
	.loc 1 330 19 discriminator 1
	testq	%rax, %rax
	je	.L78
	.loc 1 332 15
	cmpq	$0, -8(%rbp)
	je	.L79
	.loc 1 332 22 discriminator 1
	movq	-8(%rbp), %rax
	movq	%rax, %rdi
	call	free@PLT
.L79:
	.loc 1 333 18
	movq	-16(%rbp), %rax
	movq	%rax, -8(%rbp)
	.loc 1 334 19
	movq	-16(%rbp), %rax
	movq	4144(%rax), %rax
	movq	%rax, -16(%rbp)
.L78:
	.loc 1 337 34
	movq	-24(%rbp), %rax
	movl	-32(%rbp), %edx
	movslq	%edx, %rdx
	movq	(%rax,%rdx,8), %rax
	.loc 1 337 12
	testq	%rax, %rax
	je	.L80
	.loc 1 337 65 discriminator 1
	movq	-24(%rbp), %rax
	movl	-32(%rbp), %edx
	movslq	%edx, %rdx
	movq	(%rax,%rdx,8), %rax
	.loc 1 337 39 discriminator 1
	movq	%rax, %rdi
	call	free@PLT
.L80:
.LBE7:
	.loc 1 326 39 discriminator 2
	addl	$1, -32(%rbp)
.L77:
	.loc 1 326 5 discriminator 1
	cmpl	$1023, -32(%rbp)
	jle	.L81
	.loc 1 339 5
	movq	-24(%rbp), %rax
	addq	$8192, %rax
	movq	%rax, %rdi
	call	pthread_mutex_destroy@PLT
	.loc 1 341 5
	movq	-24(%rbp), %rax
	movq	%rax, %rdi
	call	free@PLT
	.loc 1 342 1
	nop
	leave
	.cfi_def_cfa 7, 8
	ret
	.cfi_endproc
.LFE301:
	.size	cleanup_cache, .-cleanup_cache
.Letext0:
	.file 2 "/usr/lib/gcc/x86_64-linux-gnu/9/include/stddef.h"
	.file 3 "/usr/include/x86_64-linux-gnu/bits/types.h"
	.file 4 "/usr/include/x86_64-linux-gnu/bits/types/struct_FILE.h"
	.file 5 "/usr/include/x86_64-linux-gnu/bits/types/FILE.h"
	.file 6 "/usr/include/stdio.h"
	.file 7 "/usr/include/x86_64-linux-gnu/bits/sys_errlist.h"
	.file 8 "/usr/include/x86_64-linux-gnu/bits/types/time_t.h"
	.file 9 "/usr/include/x86_64-linux-gnu/bits/types/struct_timespec.h"
	.file 10 "/usr/include/x86_64-linux-gnu/bits/thread-shared-types.h"
	.file 11 "/usr/include/x86_64-linux-gnu/bits/struct_mutex.h"
	.file 12 "/usr/include/x86_64-linux-gnu/bits/pthreadtypes.h"
	.file 13 "/usr/include/x86_64-linux-gnu/bits/stdint-uintn.h"
	.file 14 "/usr/include/unistd.h"
	.file 15 "/usr/include/x86_64-linux-gnu/bits/getopt_core.h"
	.file 16 "/usr/include/errno.h"
	.file 17 "/usr/include/x86_64-linux-gnu/bits/dirent.h"
	.file 18 "/usr/include/x86_64-linux-gnu/bits/sockaddr.h"
	.file 19 "/usr/include/x86_64-linux-gnu/bits/socket.h"
	.file 20 "/usr/include/netinet/in.h"
	.file 21 "/usr/include/x86_64-linux-gnu/bits/stat.h"
	.file 22 "/usr/include/signal.h"
	.file 23 "/usr/include/time.h"
	.file 24 "includes/cache.h"
	.file 25 "/usr/include/openssl/ossl_typ.h"
	.file 26 "/usr/include/openssl/asn1.h"
	.file 27 "/usr/include/dirent.h"
	.section	.note.GNU-stack,"",@progbits
	.section	.note.gnu.property,"a"
	.align 8
	.long	 1f - 0f
	.long	 4f - 1f
	.long	 5
0:
	.string	 "GNU"
1:
	.align 8
	.long	 0xc0000002
	.long	 3f - 2f
2:
	.long	 0x3
3:
	.align 8
4:
