	.file	"handle_req.c"
	.text
.Ltext0:
	.globl	get_in_addr
	.type	get_in_addr, @function
get_in_addr:
.LFB6:
	.file 1 "src/handle_req.c"
	.loc 1 20 1
	.cfi_startproc
	endbr64
	pushq	%rbp
	.cfi_def_cfa_offset 16
	.cfi_offset 6, -16
	movq	%rsp, %rbp
	.cfi_def_cfa_register 6
	movq	%rdi, -8(%rbp)
	.loc 1 21 11
	movq	-8(%rbp), %rax
	movzwl	(%rax), %eax
	.loc 1 21 8
	cmpw	$2, %ax
	jne	.L2
	.loc 1 23 16
	movq	-8(%rbp), %rax
	addq	$4, %rax
	jmp	.L3
.L2:
	.loc 1 26 12
	movq	-8(%rbp), %rax
	addq	$8, %rax
.L3:
	.loc 1 27 1
	popq	%rbp
	.cfi_def_cfa 7, 8
	ret
	.cfi_endproc
.LFE6:
	.size	get_in_addr, .-get_in_addr
	.section	.rodata
.LC0:
	.string	"Cache-Control: no-cache"
.LC1:
	.string	"Cache-Control: no-store"
.LC2:
	.string	"Pragma: no-cache"
.LC3:
	.string	"Content-Type:"
.LC4:
	.string	"application/json"
.LC5:
	.string	"text/javascript"
.LC6:
	.string	"application/xml"
	.text
	.globl	is_dynamic_content
	.type	is_dynamic_content, @function
is_dynamic_content:
.LFB7:
	.loc 1 30 1
	.cfi_startproc
	endbr64
	pushq	%rbp
	.cfi_def_cfa_offset 16
	.cfi_offset 6, -16
	movq	%rsp, %rbp
	.cfi_def_cfa_register 6
	subq	$32, %rsp
	movq	%rdi, -24(%rbp)
	movq	%rsi, -32(%rbp)
	.loc 1 32 8
	cmpq	$0, -32(%rbp)
	je	.L5
.LBB2:
	.loc 1 34 13
	movq	-32(%rbp), %rax
	leaq	.LC0(%rip), %rsi
	movq	%rax, %rdi
	call	strstr@PLT
	.loc 1 34 12
	testq	%rax, %rax
	jne	.L6
	.loc 1 35 13 discriminator 1
	movq	-32(%rbp), %rax
	leaq	.LC1(%rip), %rsi
	movq	%rax, %rdi
	call	strstr@PLT
	.loc 1 34 61 discriminator 1
	testq	%rax, %rax
	jne	.L6
	.loc 1 36 13
	movq	-32(%rbp), %rax
	leaq	.LC2(%rip), %rsi
	movq	%rax, %rdi
	call	strstr@PLT
	.loc 1 35 61
	testq	%rax, %rax
	je	.L7
.L6:
	.loc 1 38 20
	movl	$1, %eax
	jmp	.L8
.L7:
	.loc 1 41 36
	movq	-32(%rbp), %rax
	leaq	.LC3(%rip), %rsi
	movq	%rax, %rdi
	call	strstr@PLT
	movq	%rax, -8(%rbp)
	.loc 1 42 12
	cmpq	$0, -8(%rbp)
	je	.L5
	.loc 1 44 17
	movq	-8(%rbp), %rax
	leaq	.LC4(%rip), %rsi
	movq	%rax, %rdi
	call	strstr@PLT
	.loc 1 44 16
	testq	%rax, %rax
	jne	.L9
	.loc 1 45 17 discriminator 1
	movq	-8(%rbp), %rax
	leaq	.LC5(%rip), %rsi
	movq	%rax, %rdi
	call	strstr@PLT
	.loc 1 44 58 discriminator 1
	testq	%rax, %rax
	jne	.L9
	.loc 1 46 17
	movq	-8(%rbp), %rax
	leaq	.LC6(%rip), %rsi
	movq	%rax, %rdi
	call	strstr@PLT
	.loc 1 45 57
	testq	%rax, %rax
	je	.L5
.L9:
	.loc 1 48 24
	movl	$1, %eax
	jmp	.L8
.L5:
.LBE2:
	.loc 1 54 8
	cmpq	$0, -24(%rbp)
	je	.L10
	.loc 1 54 24 discriminator 1
	movq	-24(%rbp), %rax
	movl	$63, %esi
	movq	%rax, %rdi
	call	strchr@PLT
	.loc 1 54 21 discriminator 1
	testq	%rax, %rax
	je	.L10
	.loc 1 56 16
	movl	$1, %eax
	jmp	.L8
.L10:
	.loc 1 59 12
	movl	$0, %eax
.L8:
	.loc 1 60 1
	leave
	.cfi_def_cfa 7, 8
	ret
	.cfi_endproc
.LFE7:
	.size	is_dynamic_content, .-is_dynamic_content
	.globl	prefetch_thread_create
	.type	prefetch_thread_create, @function
prefetch_thread_create:
.LFB8:
	.loc 1 63 1
	.cfi_startproc
	endbr64
	pushq	%rbp
	.cfi_def_cfa_offset 16
	.cfi_offset 6, -16
	movq	%rsp, %rbp
	.cfi_def_cfa_register 6
	pushq	%rbx
	subq	$72, %rsp
	.cfi_offset 3, -24
	movq	%rdi, -56(%rbp)
	movl	%esi, -60(%rbp)
	movq	%rdx, -72(%rbp)
	movq	%rcx, -80(%rbp)
	.loc 1 63 1
	movq	%fs:40, %rax
	movq	%rax, -24(%rbp)
	xorl	%eax, %eax
	.loc 1 65 26
	movl	$56, %edi
	call	malloc@PLT
	movq	%rax, -32(%rbp)
	.loc 1 66 19
	movl	-60(%rbp), %eax
	cltq
	salq	$3, %rax
	movq	%rax, %rdi
	call	malloc@PLT
	movq	%rax, %rdx
	.loc 1 66 17
	movq	-32(%rbp), %rax
	movq	%rdx, 8(%rax)
	.loc 1 67 16
	movl	$208, %edi
	call	malloc@PLT
	movq	%rax, %rdx
	.loc 1 67 14
	movq	-32(%rbp), %rax
	movq	%rdx, 32(%rax)
	.loc 1 69 9
	movq	-32(%rbp), %rax
	movq	32(%rax), %rax
	.loc 1 69 30
	movl	$-1, 4(%rax)
	.loc 1 70 9
	movq	-32(%rbp), %rax
	movq	32(%rax), %rax
	.loc 1 70 27
	movq	-56(%rbp), %rdx
	movl	156(%rdx), %edx
	.loc 1 70 23
	movl	%edx, 156(%rax)
.LBB3:
	.loc 1 72 14
	movl	$0, -44(%rbp)
	.loc 1 72 5
	jmp	.L12
.L14:
	.loc 1 74 22
	movl	-44(%rbp), %eax
	cltq
	leaq	0(,%rax,8), %rdx
	movq	-72(%rbp), %rax
	addq	%rdx, %rax
	movq	(%rax), %rax
	.loc 1 74 12
	testq	%rax, %rax
	je	.L13
	.loc 1 75 46
	movl	-44(%rbp), %eax
	cltq
	leaq	0(,%rax,8), %rdx
	movq	-72(%rbp), %rax
	addq	%rdx, %rax
	.loc 1 75 30
	movq	(%rax), %rax
	.loc 1 75 17
	movq	-32(%rbp), %rdx
	movq	8(%rdx), %rdx
	.loc 1 75 24
	movl	-44(%rbp), %ecx
	movslq	%ecx, %rcx
	salq	$3, %rcx
	leaq	(%rdx,%rcx), %rbx
	.loc 1 75 30
	movq	%rax, %rdi
	call	strdup@PLT
	.loc 1 75 28
	movq	%rax, (%rbx)
.L13:
	.loc 1 72 39 discriminator 2
	addl	$1, -44(%rbp)
.L12:
	.loc 1 72 5 discriminator 1
	movl	-44(%rbp), %eax
	cmpl	-60(%rbp), %eax
	jl	.L14
.LBE3:
	.loc 1 77 19
	movq	-32(%rbp), %rax
	movl	-60(%rbp), %edx
	movl	%edx, (%rax)
	.loc 1 79 35
	movq	-80(%rbp), %rax
	movq	24(%rax), %rax
	.loc 1 79 22
	movq	%rax, %rdi
	call	strdup@PLT
	movq	%rax, %rdx
	.loc 1 79 20
	movq	-32(%rbp), %rax
	movq	%rdx, 16(%rax)
	.loc 1 80 29
	movq	-80(%rbp), %rax
	movq	32(%rax), %rax
	.loc 1 80 85
	testq	%rax, %rax
	je	.L15
	.loc 1 80 64 discriminator 1
	movq	-80(%rbp), %rax
	movq	32(%rax), %rax
	.loc 1 80 51 discriminator 1
	movq	%rax, %rdi
	call	strdup@PLT
	movq	%rax, %rdx
	jmp	.L16
.L15:
	.loc 1 80 85 discriminator 2
	movl	$0, %edx
.L16:
	.loc 1 80 21 discriminator 4
	movq	-32(%rbp), %rax
	movq	%rdx, 24(%rax)
	.loc 1 81 43 discriminator 4
	movq	-80(%rbp), %rax
	movq	8(%rax), %rax
	.loc 1 81 30 discriminator 4
	movq	%rax, %rdi
	call	strdup@PLT
	movq	%rax, %rdx
	.loc 1 81 28 discriminator 4
	movq	-32(%rbp), %rax
	movq	%rdx, 40(%rax)
	.loc 1 82 40 discriminator 4
	movq	-80(%rbp), %rax
	movl	88(%rax), %edx
	.loc 1 82 32 discriminator 4
	movq	-32(%rbp), %rax
	movl	%edx, 48(%rax)
	.loc 1 84 5 discriminator 4
	movq	-32(%rbp), %rdx
	leaq	-40(%rbp), %rax
	movq	%rdx, %rcx
	movq	prefetch_thread_func@GOTPCREL(%rip), %rdx
	movl	$0, %esi
	movq	%rax, %rdi
	call	pthread_create@PLT
	.loc 1 85 5 discriminator 4
	movq	-40(%rbp), %rax
	movq	%rax, %rdi
	call	pthread_detach@PLT
	.loc 1 86 1 discriminator 4
	nop
	movq	-24(%rbp), %rax
	xorq	%fs:40, %rax
	je	.L17
	.loc 1 86 1 is_stmt 0
	call	__stack_chk_fail@PLT
.L17:
	addq	$72, %rsp
	popq	%rbx
	popq	%rbp
	.cfi_def_cfa 7, 8
	ret
	.cfi_endproc
.LFE8:
	.size	prefetch_thread_create, .-prefetch_thread_create
	.section	.rodata
	.align 8
.LC7:
	.string	"\033[35m[+] (%d) Prefetching *not* Cached uri: %s%s\n\033[0m"
.LC8:
	.string	"80"
	.align 8
.LC9:
	.string	"\033[33m[+] (%d) Requesting file from server: %s:%s%s\n\033[0m"
.LC10:
	.string	"8080"
.LC11:
	.string	"localhost"
.LC12:
	.string	"127.0.1.1"
	.align 8
.LC13:
	.string	"%s 403 Forbidden\r\nContent-Type: text/plain\r\n\r\n cannot req proxy"
	.align 8
.LC14:
	.string	"\033[31m[-] send-server failed for server %d\n\033[0m"
.LC15:
	.string	"\033[31mgetaddrinfo\n\033[0m"
	.align 8
.LC16:
	.string	"%s 403 Forbidden\r\nContent-Type: text/plain\r\n\r\nBlocked"
	.align 8
.LC17:
	.string	"\033[31m[-] (%d) send-server failed for server %d\n\033[0m"
.LC18:
	.string	"\033[31mserver: socket"
	.align 8
.LC19:
	.string	"\033[31m\n[-] (%d) connect failed for server %d\n\033[0m"
	.align 8
.LC20:
	.string	"\033[32m[+] (%d) Connection established to server: %s\n[+] (%d) Server IP address: %s:%s\n\033[0m"
	.align 8
.LC21:
	.string	"\033[33mExisting connection found %d \n\033[0m"
.LC22:
	.string	"Connection: keep-alive"
.LC23:
	.string	"Connection: close"
.LC24:
	.string	"GET %s %s\r\nHost: %s\r\n%s\r\n%s\r\n"
.LC25:
	.string	"GET %s %s\r\nHost: %s\r\n%s\r\n\r\n"
	.align 8
.LC26:
	.string	"\033[35m[+] (%d) Sent request \n%s \n\r\033[0m"
	.align 8
.LC27:
	.string	"\033[31m[-] (%d) send failed for server %d \n\033[0m"
	.align 8
.LC28:
	.string	"[-] (%d) Recv failed for proxy <-> server \n\r"
	.align 8
.LC29:
	.string	"[-] (%d) Connetion close proxy <-> server \n\r"
.LC30:
	.string	"\r\n\r\n"
.LC31:
	.string	"Transfer-Encoding: chunked"
.LC32:
	.string	"\r\n0\r\n\r\n"
	.align 8
.LC33:
	.string	"[+] Found end chunk marker in first response"
.LC34:
	.string	"Content-Length:"
.LC35:
	.string	"\r\n"
	.align 8
.LC36:
	.string	"\033[32m[+] Detected Content-Length: %d\n\033[0m"
	.align 8
.LC37:
	.string	"\033[32m[+] Detected Content-Type: %s\n\033[0m"
	.align 8
.LC38:
	.string	"\033[31m[-] (%d) Missing Content-Length in non-chunked response, Response: \n%s\n\033[0m"
	.align 8
.LC39:
	.string	"\033[32m[+] (%d) Found end chunk marker\n\033[0m"
	.align 8
.LC40:
	.string	"\033[31m[-] (%d) Memory allocation failed for links array (requested %zu bytes)\n\033[0m"
	.align 8
.LC41:
	.string	"\033[32m[+] (%d) Sent %d bytes directly (%s %s) !\n\033[0m"
	.align 8
.LC42:
	.string	"\033[32m[+] (%d) %d bytes Saved to cache ! (%s %s) !\n\033[0m"
	.align 8
.LC43:
	.string	"[+] Response complete (bytes: %d, expected: %d)\n"
	.align 8
.LC44:
	.string	"\033[32m[+] (%d) Prefetching for %s:%s/%s \n\033[0m"
	.text
	.globl	if_not_cached
	.type	if_not_cached, @function
if_not_cached:
.LFB9:
	.loc 1 89 1 is_stmt 1
	.cfi_startproc
	endbr64
	pushq	%rbp
	.cfi_def_cfa_offset 16
	.cfi_offset 6, -16
	movq	%rsp, %rbp
	.cfi_def_cfa_register 6
	pushq	%r13
	pushq	%r12
	pushq	%rbx
	leaq	-28672(%rsp), %r11
.LPSRL0:
	subq	$4096, %rsp
	orq	$0, (%rsp)
	cmpq	%r11, %rsp
	jne	.LPSRL0
	subq	$2312, %rsp
	.cfi_offset 13, -24
	.cfi_offset 12, -32
	.cfi_offset 3, -40
	movq	%rdi, -30984(%rbp)
	movq	%rsi, -30992(%rbp)
	movl	%edx, -30996(%rbp)
	movl	%ecx, -31000(%rbp)
	.loc 1 89 1
	movq	%fs:40, %rax
	movq	%rax, -40(%rbp)
	xorl	%eax, %eax
	.loc 1 91 8
	cmpl	$0, -31000(%rbp)
	jne	.L19
	.loc 1 92 9
	movq	-30984(%rbp), %rax
	movq	16(%rax), %r12
	movq	-30984(%rbp), %rax
	movq	24(%rax), %rbx
	call	gettid@PLT
	movq	%r12, %rcx
	movq	%rbx, %rdx
	movl	%eax, %esi
	leaq	.LC7(%rip), %rdi
	movl	$0, %eax
	call	printf@PLT
.L19:
	.loc 1 98 9
	movl	$0, -30972(%rbp)
	.loc 1 99 12
	movq	$0, -30888(%rbp)
	.loc 1 101 5
	movq	-30984(%rbp), %rax
	movq	16(%rax), %r13
	.loc 1 103 18
	movq	-30984(%rbp), %rax
	movq	32(%rax), %rax
	.loc 1 101 5
	testq	%rax, %rax
	je	.L20
	.loc 1 101 5 is_stmt 0 discriminator 1
	movq	-30984(%rbp), %rax
	movq	32(%rax), %rbx
	jmp	.L21
.L20:
	.loc 1 101 5 discriminator 2
	leaq	.LC8(%rip), %rbx
.L21:
	.loc 1 101 5 discriminator 4
	movq	-30984(%rbp), %rax
	movq	24(%rax), %r12
	call	gettid@PLT
	movq	%r13, %r8
	movq	%rbx, %rcx
	movq	%r12, %rdx
	movl	%eax, %esi
	leaq	.LC9(%rip), %rdi
	movl	$0, %eax
	call	printf@PLT
	.loc 1 105 5 is_stmt 1 discriminator 4
	leaq	-30816(%rbp), %rax
	movl	$48, %edx
	movl	$0, %esi
	movq	%rax, %rdi
	call	memset@PLT
	.loc 1 106 21 discriminator 4
	movl	$0, -30812(%rbp)
	.loc 1 107 23 discriminator 4
	movl	$1, -30808(%rbp)
	.loc 1 109 15 discriminator 4
	movq	-30984(%rbp), %rax
	movq	32(%rax), %rax
	.loc 1 109 8 discriminator 4
	testq	%rax, %rax
	jne	.L22
	.loc 1 110 37
	leaq	.LC8(%rip), %rdi
	call	strdup@PLT
	movq	%rax, %rdx
	.loc 1 110 35
	movq	-30984(%rbp), %rax
	movq	%rdx, 32(%rax)
.L22:
	.loc 1 112 22
	movq	-30984(%rbp), %rax
	movq	32(%rax), %rax
	.loc 1 112 9
	leaq	.LC10(%rip), %rsi
	movq	%rax, %rdi
	call	strcmp@PLT
	.loc 1 112 8
	testl	%eax, %eax
	jne	.L23
	.loc 1 112 74 discriminator 1
	movq	-30984(%rbp), %rax
	movq	24(%rax), %rax
	.loc 1 112 61 discriminator 1
	leaq	.LC11(%rip), %rsi
	movq	%rax, %rdi
	call	strcmp@PLT
	.loc 1 112 56 discriminator 1
	testl	%eax, %eax
	je	.L24
	.loc 1 112 124 discriminator 3
	movq	-30984(%rbp), %rax
	movq	24(%rax), %rax
	.loc 1 112 111 discriminator 3
	leaq	.LC12(%rip), %rsi
	movq	%rax, %rdi
	call	strcmp@PLT
	.loc 1 112 108 discriminator 3
	testl	%eax, %eax
	jne	.L23
.L24:
	.loc 1 112 160 discriminator 4
	cmpl	$0, -30996(%rbp)
	je	.L23
.LBB4:
	.loc 1 115 9
	movq	-30984(%rbp), %rax
	movq	8(%rax), %rdx
	leaq	-30904(%rbp), %rax
	leaq	.LC13(%rip), %rsi
	movq	%rax, %rdi
	movl	$0, %eax
	call	asprintf@PLT
	.loc 1 116 13
	movq	-30904(%rbp), %rax
	movq	%rax, %rdi
	call	strlen@PLT
	movq	%rax, %rdx
	movq	-30904(%rbp), %rsi
	movq	-30992(%rbp), %rax
	movl	4(%rax), %eax
	movl	$0, %ecx
	movl	%eax, %edi
	call	send@PLT
	.loc 1 116 12
	testq	%rax, %rax
	jns	.L25
	.loc 1 118 81
	call	__errno_location@PLT
	.loc 1 118 13
	movl	(%rax), %edx
	movq	stderr(%rip), %rax
	leaq	.LC14(%rip), %rsi
	movq	%rax, %rdi
	movl	$0, %eax
	call	fprintf@PLT
.L25:
	.loc 1 120 9
	movq	-30904(%rbp), %rax
	movq	%rax, %rdi
	call	free@PLT
	.loc 1 121 16
	movl	$-1, %eax
	jmp	.L76
.L23:
.LBE4:
	.loc 1 124 18
	movq	-30984(%rbp), %rax
	movq	24(%rax), %rax
	movq	%rax, %rsi
	movl	$0, %edi
	call	get_connection@PLT
	movl	%eax, -30968(%rbp)
	.loc 1 126 8
	cmpl	$0, -30968(%rbp)
	jns	.L27
.LBB5:
	.loc 1 128 54
	movq	-30984(%rbp), %rax
	movq	32(%rax), %rsi
	.loc 1 128 32
	movq	-30984(%rbp), %rax
	movq	24(%rax), %rax
	.loc 1 128 14
	leaq	-30912(%rbp), %rcx
	leaq	-30816(%rbp), %rdx
	movq	%rax, %rdi
	call	getaddrinfo@PLT
	.loc 1 128 12
	testl	%eax, %eax
	jns	.L28
	.loc 1 130 13
	movq	stderr(%rip), %rax
	movq	%rax, %rcx
	movl	$21, %edx
	movl	$1, %esi
	leaq	.LC15(%rip), %rdi
	call	fwrite@PLT
	.loc 1 131 19
	movq	-30992(%rbp), %rax
	movl	4(%rax), %eax
	.loc 1 131 16
	testl	%eax, %eax
	jle	.L29
	.loc 1 131 40 discriminator 1
	cmpl	$0, -30996(%rbp)
	je	.L29
.LBB6:
	.loc 1 135 17
	movq	-30984(%rbp), %rax
	movq	8(%rax), %rdx
	leaq	-30904(%rbp), %rax
	leaq	.LC16(%rip), %rsi
	movq	%rax, %rdi
	movl	$0, %eax
	call	asprintf@PLT
	.loc 1 137 22
	movq	-30904(%rbp), %rax
	movq	%rax, %rdi
	call	strlen@PLT
	movq	%rax, %rdx
	movq	-30904(%rbp), %rsi
	movq	-30992(%rbp), %rax
	movl	4(%rax), %eax
	movl	$0, %ecx
	movl	%eax, %edi
	call	send@PLT
	.loc 1 137 20
	testq	%rax, %rax
	jns	.L30
	.loc 1 139 104
	call	__errno_location@PLT
	.loc 1 139 21
	movl	(%rax), %ebx
	call	gettid@PLT
	movl	%eax, %edx
	movq	stderr(%rip), %rax
	movl	%ebx, %ecx
	leaq	.LC17(%rip), %rsi
	movq	%rax, %rdi
	movl	$0, %eax
	call	fprintf@PLT
.L30:
	.loc 1 141 17
	movq	-30904(%rbp), %rax
	movq	%rax, %rdi
	call	free@PLT
.L29:
.LBE6:
	.loc 1 144 20
	movl	$-1, %eax
	jmp	.L76
.L28:
	.loc 1 147 19
	movq	-30912(%rbp), %rax
	movq	%rax, -30896(%rbp)
	.loc 1 147 9
	jmp	.L32
.L37:
	.loc 1 151 27
	movq	-30896(%rbp), %rax
	movl	12(%rax), %edx
	movq	-30896(%rbp), %rax
	movl	8(%rax), %ecx
	movq	-30896(%rbp), %rax
	movl	4(%rax), %eax
	movl	%ecx, %esi
	movl	%eax, %edi
	call	socket@PLT
	movl	%eax, -30968(%rbp)
	.loc 1 151 16
	cmpl	$0, -30968(%rbp)
	jns	.L33
	.loc 1 153 17
	leaq	.LC18(%rip), %rdi
	call	perror@PLT
	.loc 1 154 17
	jmp	.L34
.L33:
	.loc 1 157 18
	movq	-30896(%rbp), %rax
	movl	16(%rax), %edx
	.loc 1 157 38
	movq	-30896(%rbp), %rax
	movq	24(%rax), %rax
	.loc 1 157 18
	movq	%rax, %rcx
	movl	-30968(%rbp), %eax
	movq	%rcx, %rsi
	movl	%eax, %edi
	call	connect@PLT
	.loc 1 157 16
	testl	%eax, %eax
	jns	.L78
	.loc 1 159 98
	call	__errno_location@PLT
	.loc 1 159 17
	movl	(%rax), %ebx
	call	gettid@PLT
	movl	%eax, %edx
	movq	stderr(%rip), %rax
	movl	%ebx, %ecx
	leaq	.LC19(%rip), %rsi
	movq	%rax, %rdi
	movl	$0, %eax
	call	fprintf@PLT
	.loc 1 160 17
	movl	-30968(%rbp), %eax
	movl	%eax, %edi
	call	close@PLT
	.loc 1 161 17
	nop
.L34:
	.loc 1 147 50 discriminator 2
	movq	-30896(%rbp), %rax
	movq	40(%rax), %rax
	movq	%rax, -30896(%rbp)
.L32:
	.loc 1 147 9 discriminator 1
	cmpq	$0, -30896(%rbp)
	jne	.L37
	jmp	.L36
.L78:
	.loc 1 164 13
	nop
.L36:
	.loc 1 167 12
	cmpq	$0, -30896(%rbp)
	jne	.L38
	.loc 1 169 19
	movq	-30992(%rbp), %rax
	movl	4(%rax), %eax
	.loc 1 169 16
	testl	%eax, %eax
	jle	.L39
	.loc 1 169 40 discriminator 1
	cmpl	$0, -30996(%rbp)
	je	.L39
.LBB7:
	.loc 1 172 17
	movq	-30984(%rbp), %rax
	movq	8(%rax), %rdx
	leaq	-30904(%rbp), %rax
	leaq	.LC16(%rip), %rsi
	movq	%rax, %rdi
	movl	$0, %eax
	call	asprintf@PLT
	.loc 1 173 22
	movq	-30904(%rbp), %rax
	movq	%rax, %rdi
	call	strlen@PLT
	movq	%rax, %rdx
	movq	-30904(%rbp), %rsi
	movq	-30992(%rbp), %rax
	movl	4(%rax), %eax
	movl	$0, %ecx
	movl	%eax, %edi
	call	send@PLT
	.loc 1 173 20
	testq	%rax, %rax
	jns	.L39
	.loc 1 175 104
	call	__errno_location@PLT
	.loc 1 175 21
	movl	(%rax), %ebx
	call	gettid@PLT
	movl	%eax, %edx
	movq	stderr(%rip), %rax
	movl	%ebx, %ecx
	leaq	.LC17(%rip), %rsi
	movq	%rax, %rdi
	movl	$0, %eax
	call	fprintf@PLT
.L39:
.LBE7:
	.loc 1 178 13
	movl	-30968(%rbp), %eax
	movl	%eax, %edi
	call	close@PLT
	.loc 1 179 20
	movl	$-1, %eax
	jmp	.L76
.L38:
	.loc 1 183 36
	movq	-30896(%rbp), %rax
	movq	24(%rax), %rax
	movq	%rax, %rdi
	call	get_in_addr
	movq	%rax, %rsi
	.loc 1 183 9
	movq	-30896(%rbp), %rax
	movl	4(%rax), %eax
	leaq	-30768(%rbp), %rdx
	movl	$46, %ecx
	movl	%eax, %edi
	call	inet_ntop@PLT
	.loc 1 187 22
	movq	-30984(%rbp), %rax
	movq	32(%rax), %rax
	.loc 1 184 9
	testq	%rax, %rax
	je	.L41
	.loc 1 184 9 is_stmt 0 discriminator 1
	movq	-30984(%rbp), %rax
	movq	32(%rax), %rbx
	jmp	.L42
.L41:
	.loc 1 184 9 discriminator 2
	leaq	.LC8(%rip), %rbx
.L42:
	.loc 1 184 9 discriminator 4
	call	gettid@PLT
	movl	%eax, %r13d
	movq	-30984(%rbp), %rax
	movq	24(%rax), %r12
	call	gettid@PLT
	leaq	-30768(%rbp), %rdx
	movq	%rbx, %r9
	movq	%rdx, %r8
	movl	%r13d, %ecx
	movq	%r12, %rdx
	movl	%eax, %esi
	leaq	.LC20(%rip), %rdi
	movl	$0, %eax
	call	printf@PLT
	.loc 1 189 9 is_stmt 1 discriminator 4
	movq	-30984(%rbp), %rax
	movq	24(%rax), %rax
	movl	-30968(%rbp), %edx
	movq	%rax, %rsi
	movl	$0, %edi
	call	save_connection@PLT
	.loc 1 190 9 discriminator 4
	movq	-30912(%rbp), %rax
	movq	%rax, %rdi
	call	freeaddrinfo@PLT
.LBE5:
	jmp	.L43
.L27:
	.loc 1 194 9
	movl	-30968(%rbp), %eax
	movl	%eax, %esi
	leaq	.LC21(%rip), %rdi
	movl	$0, %eax
	call	printf@PLT
.L43:
	.loc 1 199 41
	movq	-30984(%rbp), %rax
	movl	88(%rax), %eax
	.loc 1 199 92
	testl	%eax, %eax
	je	.L44
	.loc 1 199 92 is_stmt 0 discriminator 1
	leaq	.LC22(%rip), %rax
	jmp	.L45
.L44:
	.loc 1 199 92 discriminator 2
	leaq	.LC23(%rip), %rax
.L45:
	.loc 1 199 17 is_stmt 1 discriminator 4
	movq	%rax, -30872(%rbp)
	.loc 1 202 15 discriminator 4
	movq	-30984(%rbp), %rax
	movq	112(%rax), %rax
	.loc 1 202 8 discriminator 4
	testq	%rax, %rax
	je	.L46
	.loc 1 204 9
	movq	-30984(%rbp), %rax
	movq	112(%rax), %rsi
	movq	-30984(%rbp), %rax
	movq	24(%rax), %rdi
	movq	-30984(%rbp), %rax
	movq	8(%rax), %rcx
	movq	-30984(%rbp), %rax
	movq	16(%rax), %rdx
	movq	-30872(%rbp), %r8
	leaq	-30904(%rbp), %rax
	subq	$8, %rsp
	pushq	%rsi
	movq	%r8, %r9
	movq	%rdi, %r8
	leaq	.LC24(%rip), %rsi
	movq	%rax, %rdi
	movl	$0, %eax
	call	asprintf@PLT
	addq	$16, %rsp
	jmp	.L47
.L46:
	.loc 1 209 9
	movq	-30984(%rbp), %rax
	movq	24(%rax), %rsi
	movq	-30984(%rbp), %rax
	movq	8(%rax), %rcx
	movq	-30984(%rbp), %rax
	movq	16(%rax), %rdx
	movq	-30872(%rbp), %rdi
	leaq	-30904(%rbp), %rax
	movq	%rdi, %r9
	movq	%rsi, %r8
	leaq	.LC25(%rip), %rsi
	movq	%rax, %rdi
	movl	$0, %eax
	call	asprintf@PLT
.L47:
	.loc 1 213 5
	movq	-30904(%rbp), %rbx
	call	gettid@PLT
	movq	%rbx, %rdx
	movl	%eax, %esi
	leaq	.LC26(%rip), %rdi
	movl	$0, %eax
	call	printf@PLT
	.loc 1 214 9
	movq	-30904(%rbp), %rax
	movq	%rax, %rdi
	call	strlen@PLT
	movq	%rax, %rdx
	movq	-30904(%rbp), %rsi
	movl	-30968(%rbp), %eax
	movl	$16384, %ecx
	movl	%eax, %edi
	call	send@PLT
	.loc 1 214 8
	testq	%rax, %rax
	jns	.L48
	.loc 1 216 86
	call	__errno_location@PLT
	.loc 1 216 9
	movl	(%rax), %ebx
	call	gettid@PLT
	movl	%eax, %edx
	movq	stderr(%rip), %rax
	movl	%ebx, %ecx
	leaq	.LC27(%rip), %rsi
	movq	%rax, %rdi
	movl	$0, %eax
	call	fprintf@PLT
	.loc 1 217 9
	movl	-30968(%rbp), %eax
	movl	%eax, %edi
	call	close@PLT
	.loc 1 218 16
	movl	$-1, %eax
	jmp	.L76
.L48:
	.loc 1 221 67
	movq	-30984(%rbp), %rax
	movq	16(%rax), %rdx
	.loc 1 221 45
	movq	-30984(%rbp), %rax
	movq	24(%rax), %rax
	.loc 1 221 19
	movq	%rax, %rsi
	movl	$0, %edi
	call	cache_add_new@PLT
	movl	%eax, -30932(%rbp)
	.loc 1 223 5
	movq	-30904(%rbp), %rax
	movq	%rax, %rdi
	call	free@PLT
	.loc 1 225 5
	movq	-30992(%rbp), %rax
	addq	$168, %rax
	movq	%rax, %rdi
	call	pthread_mutex_lock@PLT
	.loc 1 226 9
	movl	$1, -30964(%rbp)
	.loc 1 227 9
	movl	$-1, -30960(%rbp)
	.loc 1 228 11
	movq	$0, -30880(%rbp)
	.loc 1 229 9
	movl	$0, -30928(%rbp)
	.loc 1 230 9
	movl	$0, -30956(%rbp)
	.loc 1 231 9
	movl	$0, -30924(%rbp)
	.loc 1 232 9
	movl	$0, -30952(%rbp)
	.loc 1 233 9
	movl	$0, -30948(%rbp)
	.loc 1 234 9
	movl	$0, -30944(%rbp)
.L68:
.LBB8:
	.loc 1 238 9
	leaq	-30768(%rbp), %rax
	movl	$30720, %edx
	movl	$0, %esi
	movq	%rax, %rdi
	call	memset@PLT
	.loc 1 239 25
	leaq	-30768(%rbp), %rsi
	movl	-30968(%rbp), %eax
	movl	$0, %ecx
	movl	$30720, %edx
	movl	%eax, %edi
	call	recv@PLT
	.loc 1 239 23
	movl	%eax, -30920(%rbp)
	.loc 1 239 12
	cmpl	$0, -30920(%rbp)
	jns	.L49
	.loc 1 241 13
	call	gettid@PLT
	movl	%eax, %edx
	movq	stderr(%rip), %rax
	leaq	.LC28(%rip), %rsi
	movq	%rax, %rdi
	movl	$0, %eax
	call	fprintf@PLT
	.loc 1 242 13
	jmp	.L50
.L49:
	.loc 1 244 17
	cmpl	$0, -30920(%rbp)
	jne	.L51
	.loc 1 246 13
	call	gettid@PLT
	movl	%eax, %edx
	movq	stderr(%rip), %rax
	leaq	.LC29(%rip), %rsi
	movq	%rax, %rdi
	movl	$0, %eax
	call	fprintf@PLT
	.loc 1 247 13
	jmp	.L50
.L51:
	.loc 1 250 12
	cmpl	$1, -30964(%rbp)
	jne	.L52
.LBB9:
	.loc 1 252 21
	movl	$0, -30964(%rbp)
	.loc 1 254 33
	leaq	-30768(%rbp), %rax
	leaq	.LC30(%rip), %rsi
	movq	%rax, %rdi
	call	strstr@PLT
	movq	%rax, -30864(%rbp)
	.loc 1 255 16
	cmpq	$0, -30864(%rbp)
	je	.L53
.LBB10:
	.loc 1 257 47
	leaq	-30768(%rbp), %rax
	movq	-30864(%rbp), %rdx
	subq	%rax, %rdx
	movq	%rdx, %rax
	.loc 1 257 62
	addl	$4, %eax
	.loc 1 257 33
	movl	%eax, -30928(%rbp)
	.loc 1 259 20
	leaq	-30768(%rbp), %rax
	leaq	.LC23(%rip), %rsi
	movq	%rax, %rdi
	call	strcasecmp@PLT
	.loc 1 259 19
	testl	%eax, %eax
	je	.L54
	.loc 1 260 39
	movl	$1, -30944(%rbp)
.L54:
	.loc 1 263 21
	leaq	-30768(%rbp), %rax
	leaq	.LC31(%rip), %rsi
	movq	%rax, %rdi
	call	strcasestr@PLT
	.loc 1 263 20
	testq	%rax, %rax
	je	.L55
	.loc 1 265 38
	movl	$1, -30952(%rbp)
	.loc 1 268 25
	leaq	-30768(%rbp), %rax
	leaq	.LC32(%rip), %rsi
	movq	%rax, %rdi
	call	strstr@PLT
	.loc 1 268 24
	testq	%rax, %rax
	je	.L55
	.loc 1 270 41
	movl	$1, -30948(%rbp)
	.loc 1 271 25
	leaq	.LC33(%rip), %rdi
	call	puts@PLT
.L55:
	.loc 1 276 35
	leaq	-30768(%rbp), %rax
	leaq	.LC34(%rip), %rsi
	movq	%rax, %rdi
	call	strcasestr@PLT
	movq	%rax, -30856(%rbp)
	.loc 1 277 20
	cmpq	$0, -30856(%rbp)
	je	.L56
.LBB11:
	.loc 1 279 36
	movq	-30856(%rbp), %rax
	leaq	.LC35(%rip), %rsi
	movq	%rax, %rdi
	call	strstr@PLT
	movq	%rax, -30848(%rbp)
	.loc 1 280 24
	cmpq	$0, -30848(%rbp)
	je	.L56
	.loc 1 282 57
	movq	-30856(%rbp), %rax
	addq	$16, %rax
	.loc 1 282 42
	movq	%rax, %rdi
	call	atoi@PLT
	movl	%eax, -30960(%rbp)
	.loc 1 283 25
	movl	-30960(%rbp), %eax
	movl	%eax, %esi
	leaq	.LC36(%rip), %rdi
	movl	$0, %eax
	call	printf@PLT
.L56:
.LBE11:
	.loc 1 288 35
	leaq	-30768(%rbp), %rax
	leaq	.LC3(%rip), %rsi
	movq	%rax, %rdi
	call	strcasestr@PLT
	movq	%rax, -30840(%rbp)
	.loc 1 289 20
	cmpq	$0, -30840(%rbp)
	je	.L57
.LBB12:
	.loc 1 291 36
	movq	-30840(%rbp), %rax
	leaq	.LC35(%rip), %rsi
	movq	%rax, %rdi
	call	strstr@PLT
	movq	%rax, -30832(%rbp)
	.loc 1 292 24
	cmpq	$0, -30832(%rbp)
	je	.L57
.LBB13:
	.loc 1 294 58
	movq	-30840(%rbp), %rax
	leaq	13(%rax), %rdx
	.loc 1 294 45
	movq	-30832(%rbp), %rax
	subq	%rdx, %rax
	.loc 1 294 29
	movl	%eax, -30916(%rbp)
	.loc 1 295 54
	movl	-30916(%rbp), %eax
	addl	$1, %eax
	.loc 1 295 40
	cltq
	movq	%rax, %rdi
	call	malloc@PLT
	movq	%rax, -30880(%rbp)
	.loc 1 296 28
	cmpq	$0, -30880(%rbp)
	je	.L57
	.loc 1 298 29
	movl	-30916(%rbp), %eax
	movslq	%eax, %rdx
	.loc 1 298 60
	movq	-30840(%rbp), %rax
	leaq	13(%rax), %rcx
	.loc 1 298 29
	movq	-30880(%rbp), %rax
	movq	%rcx, %rsi
	movq	%rax, %rdi
	call	memcpy@PLT
	.loc 1 299 41
	movl	-30916(%rbp), %eax
	movslq	%eax, %rdx
	movq	-30880(%rbp), %rax
	addq	%rdx, %rax
	.loc 1 299 50
	movb	$0, (%rax)
	.loc 1 300 29
	movq	-30880(%rbp), %rax
	movq	%rax, %rsi
	leaq	.LC37(%rip), %rdi
	movl	$0, %eax
	call	printf@PLT
.L57:
.LBE13:
.LBE12:
	.loc 1 305 20
	cmpl	$-1, -30960(%rbp)
	jne	.L53
	.loc 1 305 42 discriminator 1
	cmpl	$0, -30952(%rbp)
	jne	.L53
	.loc 1 309 21
	call	gettid@PLT
	movl	%eax, %ecx
	leaq	-30768(%rbp), %rax
	movq	%rax, %rdx
	movl	%ecx, %esi
	leaq	.LC38(%rip), %rdi
	movl	$0, %eax
	call	printf@PLT
	.loc 1 310 38
	movl	$1, -30952(%rbp)
	jmp	.L53
.L52:
.LBE10:
.LBE9:
	.loc 1 317 25
	movl	-30920(%rbp), %eax
	addl	%eax, -30956(%rbp)
	.loc 1 320 16
	cmpl	$0, -30952(%rbp)
	je	.L53
	.loc 1 320 37 discriminator 1
	leaq	-30768(%rbp), %rax
	leaq	.LC32(%rip), %rsi
	movq	%rax, %rdi
	call	strstr@PLT
	.loc 1 320 34 discriminator 1
	testq	%rax, %rax
	je	.L53
	.loc 1 322 33
	movl	$1, -30948(%rbp)
	.loc 1 323 17
	call	gettid@PLT
	movl	%eax, %esi
	leaq	.LC39(%rip), %rdi
	movl	$0, %eax
	call	printf@PLT
.L53:
	.loc 1 326 9
	movl	-30920(%rbp), %eax
	movslq	%eax, %rdx
	leaq	-30768(%rbp), %rcx
	movl	-30932(%rbp), %eax
	movq	%rcx, %rsi
	movl	%eax, %edi
	call	write@PLT
	.loc 1 328 13
	movl	$0, -30976(%rbp)
	.loc 1 329 30
	leaq	-30976(%rbp), %rdx
	leaq	-30768(%rbp), %rax
	movq	%rdx, %rsi
	movq	%rax, %rdi
	call	extract_links@PLT
	movq	%rax, -30824(%rbp)
	.loc 1 330 24
	movl	-30976(%rbp), %eax
	.loc 1 330 12
	testl	%eax, %eax
	jle	.L58
	.loc 1 330 28 discriminator 1
	cmpq	$0, -30824(%rbp)
	je	.L58
	.loc 1 333 57
	movl	-30976(%rbp), %edx
	movl	-30972(%rbp), %eax
	addl	%edx, %eax
	cltq
	.loc 1 333 25
	leaq	0(,%rax,8), %rdx
	movq	-30888(%rbp), %rax
	movq	%rdx, %rsi
	movq	%rax, %rdi
	call	realloc@PLT
	movq	%rax, -30888(%rbp)
	.loc 1 335 16
	cmpq	$0, -30888(%rbp)
	jne	.L59
	.loc 1 338 48
	movl	-30976(%rbp), %edx
	movl	-30972(%rbp), %eax
	addl	%edx, %eax
	cltq
	.loc 1 337 17
	leaq	0(,%rax,8), %rbx
	call	gettid@PLT
	movl	%eax, %edx
	movq	stderr(%rip), %rax
	movq	%rbx, %rcx
	leaq	.LC40(%rip), %rsi
	movq	%rax, %rdi
	movl	$0, %eax
	call	fprintf@PLT
	.loc 1 339 17
	movq	-30824(%rbp), %rax
	movq	%rax, %rdi
	call	free@PLT
	.loc 1 340 17
	movq	-30992(%rbp), %rax
	addq	$168, %rax
	movq	%rax, %rdi
	call	pthread_mutex_unlock@PLT
	.loc 1 341 24
	movl	$-1, %eax
	jmp	.L76
.L59:
.LBB14:
	.loc 1 344 22
	movl	$0, -30940(%rbp)
	.loc 1 344 13
	jmp	.L61
.L62:
	.loc 1 346 64 discriminator 3
	movl	-30940(%rbp), %eax
	cltq
	leaq	0(,%rax,8), %rdx
	movq	-30824(%rbp), %rax
	addq	%rdx, %rax
	.loc 1 346 46 discriminator 3
	movq	(%rax), %rax
	.loc 1 346 39 discriminator 3
	movl	-30972(%rbp), %ecx
	movl	-30940(%rbp), %edx
	addl	%ecx, %edx
	movslq	%edx, %rdx
	.loc 1 346 26 discriminator 3
	leaq	0(,%rdx,8), %rcx
	movq	-30888(%rbp), %rdx
	leaq	(%rcx,%rdx), %rbx
	.loc 1 346 46 discriminator 3
	movq	%rax, %rdi
	call	strdup@PLT
	.loc 1 346 44 discriminator 3
	movq	%rax, (%rbx)
	.loc 1 344 46 discriminator 3
	addl	$1, -30940(%rbp)
.L61:
	.loc 1 344 31 discriminator 1
	movl	-30976(%rbp), %eax
	.loc 1 344 13 discriminator 1
	cmpl	%eax, -30940(%rbp)
	jl	.L62
.LBE14:
	.loc 1 350 25
	movl	-30976(%rbp), %eax
	addl	%eax, -30972(%rbp)
	.loc 1 354 13
	movq	-30824(%rbp), %rax
	movq	%rax, %rdi
	call	free@PLT
.L58:
	.loc 1 357 12
	cmpl	$0, -30996(%rbp)
	je	.L63
	.loc 1 359 17
	movl	-30920(%rbp), %eax
	movslq	%eax, %rdx
	movq	-30992(%rbp), %rax
	movl	4(%rax), %eax
	leaq	-30768(%rbp), %rsi
	movl	$16384, %ecx
	movl	%eax, %edi
	call	send@PLT
	.loc 1 359 16
	testq	%rax, %rax
	jns	.L64
	.loc 1 361 100
	call	__errno_location@PLT
	.loc 1 361 17
	movl	(%rax), %ebx
	call	gettid@PLT
	movl	%eax, %edx
	movq	stderr(%rip), %rax
	movl	%ebx, %ecx
	leaq	.LC17(%rip), %rsi
	movq	%rax, %rdi
	movl	$0, %eax
	call	fprintf@PLT
	.loc 1 362 17
	movl	-30932(%rbp), %eax
	movl	%eax, %edi
	call	close@PLT
	.loc 1 363 17
	movl	-30968(%rbp), %eax
	movl	%eax, %edi
	call	close@PLT
	.loc 1 364 17
	movq	-30992(%rbp), %rax
	addq	$168, %rax
	movq	%rax, %rdi
	call	pthread_mutex_unlock@PLT
	.loc 1 365 24
	movl	$-1, %eax
	jmp	.L76
.L64:
	.loc 1 367 13
	movq	-30984(%rbp), %rax
	movq	16(%rax), %r12
	movq	-30984(%rbp), %rax
	movq	24(%rax), %rbx
	call	gettid@PLT
	movl	%eax, %esi
	movl	-30920(%rbp), %eax
	movq	%r12, %r8
	movq	%rbx, %rcx
	movl	%eax, %edx
	leaq	.LC41(%rip), %rdi
	movl	$0, %eax
	call	printf@PLT
.L63:
	.loc 1 369 9
	movq	-30984(%rbp), %rax
	movq	16(%rax), %r12
	movq	-30984(%rbp), %rax
	movq	24(%rax), %rbx
	call	gettid@PLT
	movl	%eax, %esi
	movl	-30920(%rbp), %eax
	movq	%r12, %r8
	movq	%rbx, %rcx
	movl	%eax, %edx
	leaq	.LC42(%rip), %rdi
	movl	$0, %eax
	call	printf@PLT
	.loc 1 376 12
	cmpl	$0, -30960(%rbp)
	jle	.L65
	.loc 1 376 33 discriminator 1
	movl	-30924(%rbp), %eax
	cmpl	-30960(%rbp), %eax
	jge	.L66
.L65:
	.loc 1 376 66 discriminator 3
	cmpl	$0, -30952(%rbp)
	je	.L68
	.loc 1 377 31
	cmpl	$0, -30948(%rbp)
	je	.L68
.L66:
	.loc 1 379 13
	movl	-30960(%rbp), %edx
	movl	-30924(%rbp), %eax
	movl	%eax, %esi
	leaq	.LC43(%rip), %rdi
	movl	$0, %eax
	call	printf@PLT
.L50:
.LBE8:
	.loc 1 384 8
	cmpq	$0, -30880(%rbp)
	je	.L70
	.loc 1 386 9
	movq	-30880(%rbp), %rax
	movq	%rax, %rdi
	call	free@PLT
.L70:
	.loc 1 388 5
	movq	-30992(%rbp), %rax
	addq	$168, %rax
	movq	%rax, %rdi
	call	pthread_mutex_unlock@PLT
	.loc 1 390 5
	movl	-30932(%rbp), %eax
	movl	%eax, %edi
	call	close@PLT
	.loc 1 392 16
	movq	-30984(%rbp), %rax
	movl	88(%rax), %eax
	.loc 1 392 8
	testl	%eax, %eax
	je	.L71
	.loc 1 392 40 discriminator 1
	cmpl	$0, -30944(%rbp)
	je	.L72
.L71:
	.loc 1 394 9
	movq	-30984(%rbp), %rax
	movq	24(%rax), %rax
	movl	$1, %edx
	movq	%rax, %rsi
	movl	$0, %edi
	call	remove_connection@PLT
.L72:
	.loc 1 397 8
	cmpq	$0, -30888(%rbp)
	je	.L73
	.loc 1 397 27 discriminator 1
	cmpl	$0, -31000(%rbp)
	je	.L73
	.loc 1 399 9
	movq	-30984(%rbp), %rax
	movq	16(%rax), %r13
	movq	-30984(%rbp), %rax
	movq	32(%rax), %r12
	movq	-30984(%rbp), %rax
	movq	24(%rax), %rbx
	call	gettid@PLT
	movq	%r13, %r8
	movq	%r12, %rcx
	movq	%rbx, %rdx
	movl	%eax, %esi
	leaq	.LC44(%rip), %rdi
	movl	$0, %eax
	call	printf@PLT
	.loc 1 400 9
	movq	-30984(%rbp), %rcx
	movq	-30888(%rbp), %rdx
	movl	-30972(%rbp), %esi
	movq	-30992(%rbp), %rax
	movq	%rax, %rdi
	call	prefetch_thread_create
.LBB15:
	.loc 1 403 18
	movl	$0, -30936(%rbp)
	.loc 1 403 9
	jmp	.L74
.L75:
	.loc 1 405 27 discriminator 3
	movl	-30936(%rbp), %eax
	cltq
	leaq	0(,%rax,8), %rdx
	movq	-30888(%rbp), %rax
	addq	%rdx, %rax
	.loc 1 405 13 discriminator 3
	movq	(%rax), %rax
	movq	%rax, %rdi
	call	free@PLT
	.loc 1 403 43 discriminator 3
	addl	$1, -30936(%rbp)
.L74:
	.loc 1 403 9 discriminator 1
	movl	-30936(%rbp), %eax
	cmpl	-30972(%rbp), %eax
	jl	.L75
.L73:
.LBE15:
	.loc 1 408 5
	movq	-30888(%rbp), %rax
	movq	%rax, %rdi
	call	free@PLT
	.loc 1 412 12
	movl	$1, %eax
.L76:
	.loc 1 413 1 discriminator 4
	movq	-40(%rbp), %rbx
	xorq	%fs:40, %rbx
	je	.L77
	.loc 1 413 1 is_stmt 0
	call	__stack_chk_fail@PLT
.L77:
	leaq	-24(%rbp), %rsp
	popq	%rbx
	popq	%r12
	popq	%r13
	popq	%rbp
	.cfi_def_cfa 7, 8
	ret
	.cfi_endproc
.LFE9:
	.size	if_not_cached, .-if_not_cached
	.section	.rodata
	.align 8
.LC45:
	.string	"\033[35m[+] (%d) Prefetching Cached uri: %s%s\n\033[0m"
	.align 8
.LC46:
	.string	"\033[32m[+] (%d) Serving file from cache: %s%s\n[+] Cache file size: %ld bytes\n\033[0m"
	.align 8
.LC47:
	.string	"\033[31m[-] (%d) Memory allocation failed\n\033[0m"
	.align 8
.LC48:
	.string	"\033[32m[+] (%d) Sent %d bytes from cache (%s/%s) !\n\033[0m"
	.text
	.globl	if_cached
	.type	if_cached, @function
if_cached:
.LFB10:
	.loc 1 425 1 is_stmt 1
	.cfi_startproc
	endbr64
	pushq	%rbp
	.cfi_def_cfa_offset 16
	.cfi_offset 6, -16
	movq	%rsp, %rbp
	.cfi_def_cfa_register 6
	pushq	%r13
	pushq	%r12
	pushq	%rbx
	leaq	-28672(%rsp), %r11
.LPSRL1:
	subq	$4096, %rsp
	orq	$0, (%rsp)
	cmpq	%r11, %rsp
	jne	.LPSRL1
	subq	$2152, %rsp
	.cfi_offset 13, -24
	.cfi_offset 12, -32
	.cfi_offset 3, -40
	movq	%rdi, -30824(%rbp)
	movq	%rsi, -30832(%rbp)
	movl	%edx, -30836(%rbp)
	movl	%ecx, -30840(%rbp)
	movl	%r8d, -30844(%rbp)
	.loc 1 425 1
	movq	%fs:40, %rax
	movq	%rax, -40(%rbp)
	xorl	%eax, %eax
	.loc 1 426 8
	cmpl	$0, -30844(%rbp)
	jne	.L80
	.loc 1 427 9
	movq	-30824(%rbp), %rax
	movq	16(%rax), %r12
	movq	-30824(%rbp), %rax
	movq	24(%rax), %rbx
	call	gettid@PLT
	movq	%r12, %rcx
	movq	%rbx, %rdx
	movl	%eax, %esi
	leaq	.LC45(%rip), %rdi
	movl	$0, %eax
	call	printf@PLT
.L80:
	.loc 1 431 12
	movq	$0, -30792(%rbp)
	.loc 1 432 9
	movl	$0, -30808(%rbp)
	.loc 1 434 5
	movq	-30832(%rbp), %rax
	addq	$168, %rax
	movq	%rax, %rdi
	call	pthread_mutex_lock@PLT
	.loc 1 436 22
	movl	-30836(%rbp), %eax
	movl	$2, %edx
	movl	$0, %esi
	movl	%eax, %edi
	call	lseek@PLT
	.loc 1 436 84
	testq	%rax, %rax
	jle	.L81
	.loc 1 436 56 discriminator 1
	movl	-30836(%rbp), %eax
	movl	$1, %edx
	movl	$0, %esi
	movl	%eax, %edi
	call	lseek@PLT
	jmp	.L82
.L81:
	.loc 1 436 84 discriminator 2
	movl	$0, %eax
.L82:
	.loc 1 436 10 discriminator 4
	movq	%rax, -30784(%rbp)
	.loc 1 438 5 discriminator 4
	movq	-30824(%rbp), %rax
	movq	16(%rax), %r12
	movq	-30824(%rbp), %rax
	movq	24(%rax), %rbx
	call	gettid@PLT
	movq	-30784(%rbp), %rdx
	movq	%rdx, %r8
	movq	%r12, %rcx
	movq	%rbx, %rdx
	movl	%eax, %esi
	leaq	.LC46(%rip), %rdi
	movl	$0, %eax
	call	printf@PLT
	.loc 1 443 5 discriminator 4
	movl	-30836(%rbp), %eax
	movl	$0, %edx
	movl	$0, %esi
	movl	%eax, %edi
	call	lseek@PLT
.L93:
.LBB16:
	.loc 1 446 9
	leaq	-30768(%rbp), %rax
	movl	$30720, %edx
	movl	$0, %esi
	movq	%rax, %rdi
	call	memset@PLT
	.loc 1 447 24
	leaq	-30768(%rbp), %rcx
	movl	-30836(%rbp), %eax
	movl	$30720, %edx
	movq	%rcx, %rsi
	movl	%eax, %edi
	call	read@PLT
	.loc 1 447 13
	movl	%eax, -30796(%rbp)
	.loc 1 448 12
	cmpl	$0, -30796(%rbp)
	jg	.L83
.LBE16:
	.loc 1 494 5
	movq	-30832(%rbp), %rax
	addq	$168, %rax
	movq	%rax, %rdi
	call	pthread_mutex_unlock@PLT
	.loc 1 497 8
	cmpq	$0, -30792(%rbp)
	jne	.L84
	jmp	.L85
.L83:
.LBB18:
	.loc 1 453 13
	movl	$0, -30812(%rbp)
	.loc 1 454 30
	leaq	-30812(%rbp), %rdx
	leaq	-30768(%rbp), %rax
	movq	%rdx, %rsi
	movq	%rax, %rdi
	call	extract_links@PLT
	movq	%rax, -30776(%rbp)
	.loc 1 455 24
	movl	-30812(%rbp), %eax
	.loc 1 455 12
	testl	%eax, %eax
	jle	.L86
	.loc 1 455 28 discriminator 1
	cmpq	$0, -30776(%rbp)
	je	.L86
	.loc 1 458 57
	movl	-30812(%rbp), %edx
	movl	-30808(%rbp), %eax
	addl	%edx, %eax
	cltq
	.loc 1 458 25
	leaq	0(,%rax,8), %rdx
	movq	-30792(%rbp), %rax
	movq	%rdx, %rsi
	movq	%rax, %rdi
	call	realloc@PLT
	movq	%rax, -30792(%rbp)
	.loc 1 460 16
	cmpq	$0, -30792(%rbp)
	jne	.L87
	.loc 1 462 17
	call	gettid@PLT
	movl	%eax, %edx
	movq	stderr(%rip), %rax
	leaq	.LC47(%rip), %rsi
	movq	%rax, %rdi
	movl	$0, %eax
	call	fprintf@PLT
	.loc 1 463 17
	movq	-30776(%rbp), %rax
	movq	%rax, %rdi
	call	free@PLT
	.loc 1 464 17
	movq	-30832(%rbp), %rax
	addq	$168, %rax
	movq	%rax, %rdi
	call	pthread_mutex_unlock@PLT
	.loc 1 465 24
	movl	$-1, %eax
	jmp	.L99
.L87:
.LBB17:
	.loc 1 469 22
	movl	$0, -30804(%rbp)
	.loc 1 469 13
	jmp	.L89
.L90:
	.loc 1 471 64 discriminator 3
	movl	-30804(%rbp), %eax
	cltq
	leaq	0(,%rax,8), %rdx
	movq	-30776(%rbp), %rax
	addq	%rdx, %rax
	.loc 1 471 46 discriminator 3
	movq	(%rax), %rax
	.loc 1 471 39 discriminator 3
	movl	-30808(%rbp), %ecx
	movl	-30804(%rbp), %edx
	addl	%ecx, %edx
	movslq	%edx, %rdx
	.loc 1 471 26 discriminator 3
	leaq	0(,%rdx,8), %rcx
	movq	-30792(%rbp), %rdx
	leaq	(%rcx,%rdx), %rbx
	.loc 1 471 46 discriminator 3
	movq	%rax, %rdi
	call	strdup@PLT
	.loc 1 471 44 discriminator 3
	movq	%rax, (%rbx)
	.loc 1 469 46 discriminator 3
	addl	$1, -30804(%rbp)
.L89:
	.loc 1 469 31 discriminator 1
	movl	-30812(%rbp), %eax
	.loc 1 469 13 discriminator 1
	cmpl	%eax, -30804(%rbp)
	jl	.L90
.LBE17:
	.loc 1 475 25
	movl	-30812(%rbp), %eax
	addl	%eax, -30808(%rbp)
	.loc 1 479 13
	movq	-30776(%rbp), %rax
	movq	%rax, %rdi
	call	free@PLT
.L86:
	.loc 1 482 12
	cmpl	$0, -30840(%rbp)
	je	.L93
	.loc 1 482 33 discriminator 1
	movq	-30832(%rbp), %rax
	movl	4(%rax), %eax
	.loc 1 482 28 discriminator 1
	testl	%eax, %eax
	jle	.L93
	.loc 1 484 17
	movl	-30796(%rbp), %eax
	movslq	%eax, %rdx
	movq	-30832(%rbp), %rax
	movl	4(%rax), %eax
	leaq	-30768(%rbp), %rsi
	movl	$0, %ecx
	movl	%eax, %edi
	call	send@PLT
	.loc 1 484 16
	testq	%rax, %rax
	jns	.L92
	.loc 1 486 100
	call	__errno_location@PLT
	.loc 1 486 17
	movl	(%rax), %ebx
	call	gettid@PLT
	movl	%eax, %edx
	movq	stderr(%rip), %rax
	movl	%ebx, %ecx
	leaq	.LC17(%rip), %rsi
	movq	%rax, %rdi
	movl	$0, %eax
	call	fprintf@PLT
	.loc 1 487 17
	movq	-30832(%rbp), %rax
	addq	$168, %rax
	movq	%rax, %rdi
	call	pthread_mutex_unlock@PLT
	.loc 1 488 24
	movl	$-1, %eax
	jmp	.L99
.L92:
	.loc 1 490 13
	movq	-30824(%rbp), %rax
	movq	16(%rax), %r12
	movq	-30824(%rbp), %rax
	movq	24(%rax), %rbx
	call	gettid@PLT
	movl	%eax, %esi
	movl	-30796(%rbp), %eax
	movq	%r12, %r8
	movq	%rbx, %rcx
	movl	%eax, %edx
	leaq	.LC48(%rip), %rdi
	movl	$0, %eax
	call	printf@PLT
.LBE18:
	.loc 1 445 5
	jmp	.L93
.L84:
	.loc 1 497 27 discriminator 1
	cmpl	$0, -30844(%rbp)
	je	.L85
	.loc 1 499 9
	movq	-30824(%rbp), %rax
	movq	16(%rax), %r13
	movq	-30824(%rbp), %rax
	movq	32(%rax), %r12
	movq	-30824(%rbp), %rax
	movq	24(%rax), %rbx
	call	gettid@PLT
	movq	%r13, %r8
	movq	%r12, %rcx
	movq	%rbx, %rdx
	movl	%eax, %esi
	leaq	.LC44(%rip), %rdi
	movl	$0, %eax
	call	printf@PLT
	.loc 1 500 9
	movq	-30824(%rbp), %rcx
	movq	-30792(%rbp), %rdx
	movl	-30808(%rbp), %esi
	movq	-30832(%rbp), %rax
	movq	%rax, %rdi
	call	prefetch_thread_create
.L85:
	.loc 1 503 5
	movl	-30836(%rbp), %eax
	movl	%eax, %edi
	call	close@PLT
	.loc 1 506 8
	cmpq	$0, -30792(%rbp)
	je	.L95
.LBB19:
	.loc 1 508 18
	movl	$0, -30800(%rbp)
	.loc 1 508 9
	jmp	.L96
.L98:
	.loc 1 510 26
	movl	-30800(%rbp), %eax
	cltq
	leaq	0(,%rax,8), %rdx
	movq	-30792(%rbp), %rax
	addq	%rdx, %rax
	movq	(%rax), %rax
	.loc 1 510 16
	testq	%rax, %rax
	je	.L97
	.loc 1 512 31
	movl	-30800(%rbp), %eax
	cltq
	leaq	0(,%rax,8), %rdx
	movq	-30792(%rbp), %rax
	addq	%rdx, %rax
	.loc 1 512 17
	movq	(%rax), %rax
	movq	%rax, %rdi
	call	free@PLT
.L97:
	.loc 1 508 43 discriminator 2
	addl	$1, -30800(%rbp)
.L96:
	.loc 1 508 9 discriminator 1
	movl	-30800(%rbp), %eax
	cmpl	-30808(%rbp), %eax
	jl	.L98
.LBE19:
	.loc 1 515 9
	movq	-30792(%rbp), %rax
	movq	%rax, %rdi
	call	free@PLT
.L95:
	.loc 1 518 12
	movl	$0, %eax
.L99:
	.loc 1 519 1 discriminator 2
	movq	-40(%rbp), %rbx
	xorq	%fs:40, %rbx
	je	.L100
	.loc 1 519 1 is_stmt 0
	call	__stack_chk_fail@PLT
.L100:
	addq	$30824, %rsp
	popq	%rbx
	popq	%r12
	popq	%r13
	popq	%rbp
	.cfi_def_cfa 7, 8
	ret
	.cfi_endproc
.LFE10:
	.size	if_cached, .-if_cached
	.globl	check_and_send_from_cache
	.type	check_and_send_from_cache, @function
check_and_send_from_cache:
.LFB11:
	.loc 1 522 1 is_stmt 1
	.cfi_startproc
	endbr64
	pushq	%rbp
	.cfi_def_cfa_offset 16
	.cfi_offset 6, -16
	movq	%rsp, %rbp
	.cfi_def_cfa_register 6
	subq	$48, %rsp
	movq	%rdi, -24(%rbp)
	movq	%rsi, -32(%rbp)
	movl	%edx, -36(%rbp)
	movl	%ecx, -40(%rbp)
	movl	%r8d, -44(%rbp)
	.loc 1 526 75
	movq	-32(%rbp), %rax
	movl	156(%rax), %eax
	.loc 1 526 15
	movslq	%eax, %rcx
	movq	-24(%rbp), %rax
	movq	16(%rax), %rdx
	.loc 1 526 40
	movq	-24(%rbp), %rax
	movq	24(%rax), %rax
	.loc 1 526 15
	movq	%rax, %rsi
	movl	$0, %edi
	call	cache_lookup@PLT
	movl	%eax, -4(%rbp)
	.loc 1 528 8
	cmpl	$0, -4(%rbp)
	js	.L102
	.loc 1 528 21 discriminator 1
	cmpl	$0, -36(%rbp)
	je	.L103
.L102:
	.loc 1 531 18
	movl	-44(%rbp), %ecx
	movl	-40(%rbp), %edx
	movq	-32(%rbp), %rsi
	movq	-24(%rbp), %rax
	movq	%rax, %rdi
	call	if_not_cached
	movl	%eax, -8(%rbp)
	.loc 1 531 16
	jmp	.L104
.L103:
	.loc 1 536 18
	movl	-44(%rbp), %edi
	movl	-40(%rbp), %ecx
	movl	-4(%rbp), %edx
	movq	-32(%rbp), %rsi
	movq	-24(%rbp), %rax
	movl	%edi, %r8d
	movq	%rax, %rdi
	call	if_cached
	movl	%eax, -8(%rbp)
.L104:
	.loc 1 539 12
	movl	-8(%rbp), %eax
	.loc 1 543 1
	leave
	.cfi_def_cfa 7, 8
	ret
	.cfi_endproc
.LFE11:
	.size	check_and_send_from_cache, .-check_and_send_from_cache
	.section	.rodata
.LC49:
	.string	"200 OK"
.LC50:
	.string	"400 Bad Request"
.LC51:
	.string	"403 Forbidden"
.LC52:
	.string	"404 Not Found"
.LC53:
	.string	"405 Method Not Allowed"
	.align 8
.LC54:
	.string	"505 HTTP Version Not Supported"
.LC55:
	.string	"400 Unknown"
	.text
	.globl	get_status_text
	.type	get_status_text, @function
get_status_text:
.LFB12:
	.loc 1 551 1
	.cfi_startproc
	endbr64
	pushq	%rbp
	.cfi_def_cfa_offset 16
	.cfi_offset 6, -16
	movq	%rsp, %rbp
	.cfi_def_cfa_register 6
	movl	%edi, -4(%rbp)
	cmpl	$32, -4(%rbp)
	ja	.L107
	movl	-4(%rbp), %eax
	leaq	0(,%rax,4), %rdx
	leaq	.L109(%rip), %rax
	movl	(%rdx,%rax), %eax
	cltq
	leaq	.L109(%rip), %rdx
	addq	%rdx, %rax
	notrack jmp	*%rax
	.section	.rodata
	.align 4
	.align 4
.L109:
	.long	.L107-.L109
	.long	.L114-.L109
	.long	.L113-.L109
	.long	.L107-.L109
	.long	.L112-.L109
	.long	.L107-.L109
	.long	.L107-.L109
	.long	.L107-.L109
	.long	.L111-.L109
	.long	.L107-.L109
	.long	.L107-.L109
	.long	.L107-.L109
	.long	.L107-.L109
	.long	.L107-.L109
	.long	.L107-.L109
	.long	.L107-.L109
	.long	.L110-.L109
	.long	.L107-.L109
	.long	.L107-.L109
	.long	.L107-.L109
	.long	.L107-.L109
	.long	.L107-.L109
	.long	.L107-.L109
	.long	.L107-.L109
	.long	.L107-.L109
	.long	.L107-.L109
	.long	.L107-.L109
	.long	.L107-.L109
	.long	.L107-.L109
	.long	.L107-.L109
	.long	.L107-.L109
	.long	.L107-.L109
	.long	.L108-.L109
	.text
.L114:
	.loc 1 555 16
	leaq	.LC49(%rip), %rax
	jmp	.L115
.L113:
	.loc 1 557 16
	leaq	.LC50(%rip), %rax
	jmp	.L115
.L112:
	.loc 1 559 16
	leaq	.LC51(%rip), %rax
	jmp	.L115
.L111:
	.loc 1 561 16
	leaq	.LC52(%rip), %rax
	jmp	.L115
.L110:
	.loc 1 563 16
	leaq	.LC53(%rip), %rax
	jmp	.L115
.L108:
	.loc 1 565 16
	leaq	.LC54(%rip), %rax
	jmp	.L115
.L107:
	.loc 1 567 16
	leaq	.LC55(%rip), %rax
.L115:
	.loc 1 569 1
	popq	%rbp
	.cfi_def_cfa 7, 8
	ret
	.cfi_endproc
.LFE12:
	.size	get_status_text, .-get_status_text
	.section	.rodata
	.align 8
.LC56:
	.string	"error we will be sending %d %s"
	.align 8
.LC57:
	.string	"HTTP/1.0 %s\r\nContent-Type: text/plain\r\nContent-Length: %d\r\nConnection: close\r\n\r\n%s"
	.align 8
.LC58:
	.string	"%s %s\r\nContent-Type: text/plain\r\nContent-Length: %d\r\nConnection: close\r\n\r\n%s"
	.text
	.globl	send_error_response
	.type	send_error_response, @function
send_error_response:
.LFB13:
	.loc 1 579 1
	.cfi_startproc
	endbr64
	pushq	%rbp
	.cfi_def_cfa_offset 16
	.cfi_offset 6, -16
	movq	%rsp, %rbp
	.cfi_def_cfa_register 6
	subq	$48, %rsp
	movl	%edi, -36(%rbp)
	movq	%rsi, -48(%rbp)
	movl	%edx, -40(%rbp)
	.loc 1 579 1
	movq	%fs:40, %rax
	movq	%rax, -8(%rbp)
	xorl	%eax, %eax
	.loc 1 581 31
	movl	-40(%rbp), %eax
	movl	%eax, %edi
	call	get_status_text
	movq	%rax, -16(%rbp)
	.loc 1 582 18
	movq	-16(%rbp), %rax
	movq	%rax, %rdi
	call	strlen@PLT
	.loc 1 582 9
	movl	%eax, -28(%rbp)
	.loc 1 583 5
	movq	-16(%rbp), %rdx
	movl	-40(%rbp), %eax
	movl	%eax, %esi
	leaq	.LC56(%rip), %rdi
	movl	$0, %eax
	call	printf@PLT
	.loc 1 585 8
	cmpq	$0, -48(%rbp)
	jne	.L117
	.loc 1 587 9
	movq	-16(%rbp), %rsi
	movl	-28(%rbp), %ecx
	movq	-16(%rbp), %rdx
	leaq	-24(%rbp), %rax
	movq	%rsi, %r8
	leaq	.LC57(%rip), %rsi
	movq	%rax, %rdi
	movl	$0, %eax
	call	asprintf@PLT
	jmp	.L118
.L117:
	.loc 1 597 9
	movq	-16(%rbp), %rdi
	movl	-28(%rbp), %esi
	movq	-16(%rbp), %rcx
	movq	-48(%rbp), %rdx
	leaq	-24(%rbp), %rax
	movq	%rdi, %r9
	movl	%esi, %r8d
	leaq	.LC58(%rip), %rsi
	movq	%rax, %rdi
	movl	$0, %eax
	call	asprintf@PLT
.L118:
	.loc 1 606 9
	movq	-24(%rbp), %rax
	.loc 1 606 8
	testq	%rax, %rax
	je	.L121
	.loc 1 608 9
	movq	-24(%rbp), %rax
	movq	%rax, %rdi
	call	strlen@PLT
	movq	%rax, %rdx
	movq	-24(%rbp), %rsi
	movl	-36(%rbp), %eax
	movl	$0, %ecx
	movl	%eax, %edi
	call	send@PLT
	.loc 1 609 9
	movq	-24(%rbp), %rax
	movq	%rax, %rdi
	call	free@PLT
.L121:
	.loc 1 611 1
	nop
	movq	-8(%rbp), %rax
	xorq	%fs:40, %rax
	je	.L120
	call	__stack_chk_fail@PLT
.L120:
	leave
	.cfi_def_cfa 7, 8
	ret
	.cfi_endproc
.LFE13:
	.size	send_error_response, .-send_error_response
	.section	.rodata
	.align 8
.LC59:
	.string	"\033[31m[-] (%d) Select syscall failed with error: %d (%s)\n\033[0m"
	.align 8
.LC60:
	.string	"\033[33m\n[-] (%d) CONNECTION TIMEOUT:\n[-] Client connection idle for %d seconds\n------------------------------------------------------------\n\033[0m"
	.align 8
.LC61:
	.string	"\033[31m[-] (%d) peer has closed the connection exiting\n"
	.align 8
.LC62:
	.string	"\n\n==============================================================\n[+] (%d) Received request from client [%d bytes]:\n==============================================================\n%s\n"
	.align 8
.LC63:
	.string	"\033[31m[-] (%d) ACCESS DENIED: Domain is in blocklist\n[-] Blocked domain: %s\n\033[0m"
	.text
	.globl	handle_req
	.type	handle_req, @function
handle_req:
.LFB14:
	.loc 1 631 1
	.cfi_startproc
	endbr64
	pushq	%rbp
	.cfi_def_cfa_offset 16
	.cfi_offset 6, -16
	movq	%rsp, %rbp
	.cfi_def_cfa_register 6
	pushq	%r12
	pushq	%rbx
	leaq	-28672(%rsp), %r11
.LPSRL2:
	subq	$4096, %rsp
	orq	$0, (%rsp)
	cmpq	%r11, %rsp
	jne	.LPSRL2
	subq	$2384, %rsp
	.cfi_offset 12, -24
	.cfi_offset 3, -32
	movq	%rdi, -31064(%rbp)
	.loc 1 631 1
	movq	%fs:40, %rax
	movq	%rax, -24(%rbp)
	xorl	%eax, %eax
.L135:
.LBB20:
.LBB21:
	.loc 1 640 9
	movl	$0, %eax
	movl	$16, %ecx
	leaq	-30880(%rbp), %rdx
	movq	%rdx, %rdi
#APP
# 640 "src/handle_req.c" 1
	cld; rep; stosq
# 0 "" 2
#NO_APP
	movl	%edi, %eax
	movl	%ecx, %edx
	movl	%edx, -31048(%rbp)
	movl	%eax, -31044(%rbp)
.LBE21:
	.loc 1 641 9
	movq	-31064(%rbp), %rax
	movl	4(%rax), %eax
	leal	63(%rax), %edx
	testl	%eax, %eax
	cmovs	%edx, %eax
	sarl	$6, %eax
	movl	%eax, %esi
	movslq	%esi, %rax
	movq	-30880(%rbp,%rax,8), %rdi
	movq	-31064(%rbp), %rax
	movl	4(%rax), %eax
	cltd
	shrl	$26, %edx
	addl	%edx, %eax
	andl	$63, %eax
	subl	%edx, %eax
	movl	$1, %edx
	movl	%eax, %ecx
	salq	%cl, %rdx
	movq	%rdx, %rax
	orq	%rax, %rdi
	movq	%rdi, %rdx
	movslq	%esi, %rax
	movq	%rdx, -30880(%rbp,%rax,8)
	.loc 1 644 24
	movq	$10, -31024(%rbp)
	movq	$0, -31016(%rbp)
	.loc 1 647 38
	movq	-31064(%rbp), %rax
	movl	4(%rax), %eax
	.loc 1 647 29
	leal	1(%rax), %edi
	leaq	-31024(%rbp), %rdx
	leaq	-30880(%rbp), %rax
	movq	%rdx, %r8
	movl	$0, %ecx
	movl	$0, %edx
	movq	%rax, %rsi
	call	select@PLT
	movl	%eax, -31040(%rbp)
	.loc 1 649 12
	cmpl	$0, -31040(%rbp)
	jns	.L123
	.loc 1 652 47
	call	__errno_location@PLT
	.loc 1 651 13
	movl	(%rax), %eax
	movl	%eax, %edi
	call	strerror@PLT
	movq	%rax, %r12
	.loc 1 652 31
	call	__errno_location@PLT
	.loc 1 651 13
	movl	(%rax), %ebx
	call	gettid@PLT
	movl	%eax, %edx
	movq	stderr(%rip), %rax
	movq	%r12, %r8
	movl	%ebx, %ecx
	leaq	.LC59(%rip), %rsi
	movq	%rax, %rdi
	movl	$0, %eax
	call	fprintf@PLT
	.loc 1 653 13
	jmp	.L136
.L123:
	.loc 1 657 17
	cmpl	$0, -31040(%rbp)
	jne	.L125
	.loc 1 659 13
	call	gettid@PLT
	movl	$10, %edx
	movl	%eax, %esi
	leaq	.LC60(%rip), %rdi
	movl	$0, %eax
	call	printf@PLT
	.loc 1 663 13
	jmp	.L136
.L125:
	.loc 1 667 18
	movq	-31064(%rbp), %rax
	movl	4(%rax), %eax
	leal	63(%rax), %edx
	testl	%eax, %eax
	cmovs	%edx, %eax
	sarl	$6, %eax
	cltq
	movq	-30880(%rbp,%rax,8), %rsi
	movq	-31064(%rbp), %rax
	movl	4(%rax), %eax
	cltd
	shrl	$26, %edx
	addl	%edx, %eax
	andl	$63, %eax
	subl	%edx, %eax
	movl	$1, %edx
	movl	%eax, %ecx
	salq	%cl, %rdx
	movq	%rdx, %rax
	andq	%rsi, %rax
	.loc 1 667 17
	testq	%rax, %rax
	je	.L135
.LBB22:
	.loc 1 669 13
	leaq	-30752(%rbp), %rax
	movl	$30720, %edx
	movl	$0, %esi
	movq	%rax, %rdi
	call	memset@PLT
	.loc 1 671 17
	movl	$0, -31036(%rbp)
	.loc 1 673 54
	leaq	-30752(%rbp), %rdx
	movl	-31036(%rbp), %eax
	cltq
	leaq	(%rdx,%rax), %rsi
	.loc 1 673 29
	movq	-31064(%rbp), %rax
	movl	4(%rax), %eax
	movl	$0, %ecx
	movl	$30720, %edx
	movl	%eax, %edi
	call	recv@PLT
	.loc 1 673 27
	movl	%eax, -31032(%rbp)
	.loc 1 673 16
	cmpl	$0, -31032(%rbp)
	js	.L139
	.loc 1 680 16
	cmpl	$0, -31032(%rbp)
	jne	.L128
	.loc 1 682 17
	call	gettid@PLT
	movl	%eax, %edx
	movq	stderr(%rip), %rax
	leaq	.LC61(%rip), %rsi
	movq	%rax, %rdi
	movl	$0, %eax
	call	fprintf@PLT
	.loc 1 683 17
	jmp	.L136
.L128:
	.loc 1 686 38
	movl	-31032(%rbp), %eax
	subl	$1, %eax
	.loc 1 686 25
	addl	%eax, -31036(%rbp)
	.loc 1 688 13
	call	gettid@PLT
	movl	%eax, %esi
	leaq	-30752(%rbp), %rdx
	movl	-31036(%rbp), %eax
	movq	%rdx, %rcx
	movl	%eax, %edx
	leaq	.LC62(%rip), %rdi
	movl	$0, %eax
	call	printf@PLT
	.loc 1 695 13
	leaq	-31008(%rbp), %rax
	movl	$120, %edx
	movl	$0, %esi
	movq	%rax, %rdi
	call	memset@PLT
	.loc 1 696 17
	leaq	-31008(%rbp), %rdx
	leaq	-30752(%rbp), %rax
	movq	%rdx, %rsi
	movq	%rax, %rdi
	call	parse_request_line_thread_safe@PLT
	.loc 1 696 16
	testl	%eax, %eax
	jns	.L129
	.loc 1 698 88
	movl	-30912(%rbp), %eax
	.loc 1 698 17
	movl	%eax, %edx
	.loc 1 698 63
	movq	-31000(%rbp), %rcx
	.loc 1 698 17
	movq	-31064(%rbp), %rax
	movl	4(%rax), %eax
	movq	%rcx, %rsi
	movl	%eax, %edi
	call	send_error_response
	.loc 1 699 17
	jmp	.L136
.L129:
	.loc 1 702 40
	movq	-30984(%rbp), %rax
	.loc 1 702 17
	movq	%rax, %rsi
	movl	$0, %edi
	call	is_blocked@PLT
	.loc 1 702 16
	testl	%eax, %eax
	je	.L131
	.loc 1 704 17
	movq	-30984(%rbp), %rbx
	call	gettid@PLT
	movq	%rbx, %rdx
	movl	%eax, %esi
	leaq	.LC63(%rip), %rdi
	movl	$0, %eax
	call	printf@PLT
	.loc 1 708 63
	movq	-31000(%rbp), %rcx
	.loc 1 708 17
	movq	-31064(%rbp), %rax
	movl	4(%rax), %eax
	movl	$4, %edx
	movq	%rcx, %rsi
	movl	%eax, %edi
	call	send_error_response
	.loc 1 710 17
	jmp	.L136
.L131:
	.loc 1 713 93
	movq	-30992(%rbp), %rax
	.loc 1 713 29
	leaq	-30752(%rbp), %rdx
	movq	%rdx, %rsi
	movq	%rax, %rdi
	call	is_dynamic_content
	movl	%eax, %edx
	movq	-31064(%rbp), %rsi
	leaq	-31008(%rbp), %rax
	movl	$1, %r8d
	movl	$1, %ecx
	movq	%rax, %rdi
	call	check_and_send_from_cache
	movl	%eax, -31028(%rbp)
	.loc 1 716 24
	movl	-30916(%rbp), %eax
	.loc 1 716 16
	cmpl	$1, %eax
	jne	.L132
	.loc 1 716 56 discriminator 1
	movl	-30920(%rbp), %eax
	.loc 1 716 47 discriminator 1
	testl	%eax, %eax
	je	.L140
.L132:
	.loc 1 716 85 discriminator 3
	cmpl	$0, -31028(%rbp)
	js	.L140
	.loc 1 720 13
	leaq	-31008(%rbp), %rax
	movq	%rax, %rdi
	call	cleanup_header@PLT
	.loc 1 721 13
	leaq	-30752(%rbp), %rax
	movl	$30720, %edx
	movl	$0, %esi
	movq	%rax, %rdi
	call	memset@PLT
.LBE22:
.LBE20:
	.loc 1 639 5
	jmp	.L135
.L139:
.LBB24:
.LBB23:
	.loc 1 675 17
	nop
	jmp	.L136
.L140:
	.loc 1 718 17
	nop
.L136:
.LBE23:
.LBE24:
	.loc 1 728 5
	leaq	-31008(%rbp), %rax
	movq	%rax, %rdi
	call	cleanup_header@PLT
	.loc 1 731 5
	movq	-31064(%rbp), %rax
	movl	4(%rax), %eax
	movl	%eax, %edi
	call	close@PLT
	.loc 1 733 12
	movl	$0, %eax
	.loc 1 734 1
	movq	-24(%rbp), %rbx
	xorq	%fs:40, %rbx
	je	.L138
	call	__stack_chk_fail@PLT
.L138:
	addq	$31056, %rsp
	popq	%rbx
	popq	%r12
	popq	%rbp
	.cfi_def_cfa 7, 8
	ret
	.cfi_endproc
.LFE14:
	.size	handle_req, .-handle_req
.Letext0:
	.file 2 "/usr/lib/gcc/x86_64-linux-gnu/9/include/stddef.h"
	.file 3 "/usr/include/x86_64-linux-gnu/bits/types.h"
	.file 4 "/usr/include/x86_64-linux-gnu/bits/types/struct_FILE.h"
	.file 5 "/usr/include/x86_64-linux-gnu/bits/types/FILE.h"
	.file 6 "/usr/include/stdio.h"
	.file 7 "/usr/include/x86_64-linux-gnu/bits/sys_errlist.h"
	.file 8 "/usr/include/x86_64-linux-gnu/bits/types/struct_timeval.h"
	.file 9 "/usr/include/x86_64-linux-gnu/bits/types/struct_timespec.h"
	.file 10 "/usr/include/x86_64-linux-gnu/sys/select.h"
	.file 11 "/usr/include/x86_64-linux-gnu/bits/thread-shared-types.h"
	.file 12 "/usr/include/x86_64-linux-gnu/bits/struct_mutex.h"
	.file 13 "/usr/include/x86_64-linux-gnu/bits/pthreadtypes.h"
	.file 14 "/usr/include/x86_64-linux-gnu/bits/stdint-uintn.h"
	.file 15 "/usr/include/unistd.h"
	.file 16 "/usr/include/x86_64-linux-gnu/bits/getopt_core.h"
	.file 17 "/usr/include/errno.h"
	.file 18 "/usr/include/x86_64-linux-gnu/bits/sockaddr.h"
	.file 19 "/usr/include/x86_64-linux-gnu/bits/socket.h"
	.file 20 "/usr/include/netinet/in.h"
	.file 21 "/usr/include/netdb.h"
	.file 22 "/usr/include/x86_64-linux-gnu/bits/stat.h"
	.file 23 "/usr/include/signal.h"
	.file 24 "/usr/include/time.h"
	.file 25 "/usr/include/x86_64-linux-gnu/bits/socket_type.h"
	.file 26 "./common.h"
	.file 27 "/usr/include/regex.h"
	.file 28 "includes/prefetch.h"
	.section	.note.GNU-stack,"",@progbits
	.section	.note.gnu.property,"a"
	.align 8
	.long	 1f - 0f
	.long	 4f - 1f
	.long	 5
0:
	.string	 "GNU"
1:
	.align 8
	.long	 0xc0000002
	.long	 3f - 2f
2:
	.long	 0x3
3:
	.align 8
4:
