	.file	"handle_req.c"
	.text
.Ltext0:
	.file 0 "/home/parth/Work/All_data/university/Network System/Assignments/PA4/client" "src/handle_req.c"
	.section	.rodata
.LC0:
	.string	"filename %s, len %d\n"
	.text
	.globl	str2md5
	.type	str2md5, @function
str2md5:
.LFB320:
	.file 1 "src/handle_req.c"
	.loc 1 54 1
	.cfi_startproc
	endbr64
	pushq	%rbp
	.cfi_def_cfa_offset 16
	.cfi_offset 6, -16
	movq	%rsp, %rbp
	.cfi_def_cfa_register 6
	subq	$80, %rsp
	movq	%rdi, -72(%rbp)
	movl	%esi, -76(%rbp)
	.loc 1 54 1
	movq	%fs:40, %rax
	movq	%rax, -8(%rbp)
	xorl	%eax, %eax
	.loc 1 55 5
	movl	-76(%rbp), %edx
	movq	-72(%rbp), %rax
	movq	%rax, %rsi
	leaq	.LC0(%rip), %rax
	movq	%rax, %rdi
	movl	$0, %eax
	call	printf@PLT
	.loc 1 57 27
	call	EVP_MD_CTX_new@PLT
	movq	%rax, -48(%rbp)
	.loc 1 58 24
	call	EVP_md5@PLT
	movq	%rax, -40(%rbp)
	.loc 1 59 5
	movq	-40(%rbp), %rcx
	movq	-48(%rbp), %rax
	movl	$0, %edx
	movq	%rcx, %rsi
	movq	%rax, %rdi
	call	EVP_DigestInit_ex@PLT
	.loc 1 63 11
	jmp	.L2
.L5:
	.loc 1 65 12
	cmpl	$512, -76(%rbp)
	jle	.L3
	.loc 1 67 13
	movq	-72(%rbp), %rcx
	movq	-48(%rbp), %rax
	movl	$512, %edx
	movq	%rcx, %rsi
	movq	%rax, %rdi
	call	EVP_DigestUpdate@PLT
	jmp	.L4
.L3:
	.loc 1 71 13
	movl	-76(%rbp), %eax
	movslq	%eax, %rdx
	movq	-72(%rbp), %rcx
	movq	-48(%rbp), %rax
	movq	%rcx, %rsi
	movq	%rax, %rdi
	call	EVP_DigestUpdate@PLT
.L4:
	.loc 1 73 16
	subl	$512, -76(%rbp)
	.loc 1 74 13
	addq	$512, -72(%rbp)
.L2:
	.loc 1 63 19
	cmpl	$0, -76(%rbp)
	jg	.L5
	.loc 1 76 5
	leaq	-60(%rbp), %rdx
	leaq	-32(%rbp), %rcx
	movq	-48(%rbp), %rax
	movq	%rcx, %rsi
	movq	%rax, %rdi
	call	EVP_DigestFinal_ex@PLT
	.loc 1 77 5
	movq	-48(%rbp), %rax
	movq	%rax, %rdi
	call	EVP_MD_CTX_free@PLT
	.loc 1 78 14
	movl	$0, -56(%rbp)
.LBB2:
	.loc 1 79 14
	movl	$0, -52(%rbp)
	.loc 1 79 5
	jmp	.L6
.L7:
	.loc 1 81 23
	movl	-52(%rbp), %eax
	cltq
	movzbl	-32(%rbp,%rax), %eax
	movzbl	%al, %eax
	.loc 1 81 14
	addl	%eax, -56(%rbp)
	.loc 1 79 33 discriminator 3
	addl	$1, -52(%rbp)
.L6:
	.loc 1 79 23 discriminator 1
	movl	-52(%rbp), %edx
	movl	-60(%rbp), %eax
	cmpl	%eax, %edx
	jb	.L7
.LBE2:
	.loc 1 84 12
	movl	-56(%rbp), %eax
	.loc 1 85 1
	movq	-8(%rbp), %rdx
	subq	%fs:40, %rdx
	je	.L9
	call	__stack_chk_fail@PLT
.L9:
	leave
	.cfi_def_cfa 7, 8
	ret
	.cfi_endproc
.LFE320:
	.size	str2md5, .-str2md5
	.globl	get_in_addr
	.type	get_in_addr, @function
get_in_addr:
.LFB321:
	.loc 1 88 1
	.cfi_startproc
	endbr64
	pushq	%rbp
	.cfi_def_cfa_offset 16
	.cfi_offset 6, -16
	movq	%rsp, %rbp
	.cfi_def_cfa_register 6
	movq	%rdi, -8(%rbp)
	.loc 1 89 11
	movq	-8(%rbp), %rax
	movzwl	(%rax), %eax
	.loc 1 89 8
	cmpw	$2, %ax
	jne	.L11
	.loc 1 91 16
	movq	-8(%rbp), %rax
	addq	$4, %rax
	jmp	.L12
.L11:
	.loc 1 94 12
	movq	-8(%rbp), %rax
	addq	$8, %rax
.L12:
	.loc 1 95 1
	popq	%rbp
	.cfi_def_cfa 7, 8
	ret
	.cfi_endproc
.LFE321:
	.size	get_in_addr, .-get_in_addr
	.globl	cleanup_current_connection
	.type	cleanup_current_connection, @function
cleanup_current_connection:
.LFB322:
	.loc 1 98 1
	.cfi_startproc
	endbr64
	pushq	%rbp
	.cfi_def_cfa_offset 16
	.cfi_offset 6, -16
	movq	%rsp, %rbp
	.cfi_def_cfa_register 6
	subq	$16, %rsp
	movq	%rdi, -8(%rbp)
	.loc 1 99 5
	movq	-8(%rbp), %rax
	movl	(%rax), %eax
	movl	%eax, %edi
	call	close@PLT
	.loc 1 100 29
	movq	-8(%rbp), %rax
	movl	$-1, (%rax)
	.loc 1 101 16
	movq	-8(%rbp), %rax
	movq	16(%rax), %rax
	.loc 1 101 8
	testq	%rax, %rax
	je	.L14
	.loc 1 102 21
	movq	-8(%rbp), %rax
	movq	16(%rax), %rax
	.loc 1 102 9
	movq	%rax, %rdi
	call	free@PLT
.L14:
	.loc 1 103 24
	movq	-8(%rbp), %rax
	movq	$0, 16(%rax)
	.loc 1 104 16
	movq	-8(%rbp), %rax
	movq	8(%rax), %rax
	.loc 1 104 8
	testq	%rax, %rax
	je	.L15
	.loc 1 105 21
	movq	-8(%rbp), %rax
	movq	8(%rax), %rax
	.loc 1 105 9
	movq	%rax, %rdi
	call	free@PLT
.L15:
	.loc 1 106 26
	movq	-8(%rbp), %rax
	movq	$0, 8(%rax)
	.loc 1 107 1
	nop
	leave
	.cfi_def_cfa 7, 8
	ret
	.cfi_endproc
.LFE322:
	.size	cleanup_current_connection, .-cleanup_current_connection
	.globl	cleanup_connection
	.type	cleanup_connection, @function
cleanup_connection:
.LFB323:
	.loc 1 110 1
	.cfi_startproc
	endbr64
	pushq	%rbp
	.cfi_def_cfa_offset 16
	.cfi_offset 6, -16
	movq	%rsp, %rbp
	.cfi_def_cfa_register 6
	subq	$32, %rsp
	movq	%rdi, -24(%rbp)
	.loc 1 111 22
	movq	-24(%rbp), %rax
	movq	32(%rax), %rax
	movq	%rax, -16(%rbp)
	.loc 1 112 11
	jmp	.L17
.L18:
.LBB3:
	.loc 1 114 26
	movq	-16(%rbp), %rax
	movq	%rax, -8(%rbp)
	.loc 1 115 17
	movq	-16(%rbp), %rax
	movq	32(%rax), %rax
	movq	%rax, -16(%rbp)
	.loc 1 116 9
	movq	-8(%rbp), %rax
	movq	%rax, %rdi
	call	free@PLT
.L17:
.LBE3:
	.loc 1 112 12
	cmpq	$0, -16(%rbp)
	jne	.L18
	.loc 1 118 37
	movq	-24(%rbp), %rax
	movl	$0, 60(%rax)
	.loc 1 119 27
	movq	-24(%rbp), %rax
	movl	$0, 56(%rax)
	.loc 1 120 11
	movq	-24(%rbp), %rax
	movq	48(%rax), %rax
	.loc 1 120 8
	testq	%rax, %rax
	je	.L19
	.loc 1 121 16
	movq	-24(%rbp), %rax
	movq	48(%rax), %rax
	.loc 1 121 9
	movq	%rax, %rdi
	call	free@PLT
.L19:
	.loc 1 122 25
	movq	-24(%rbp), %rax
	movq	$0, 48(%rax)
	.loc 1 123 5
	movq	-24(%rbp), %rax
	movq	40(%rax), %rax
	movq	%rax, %rdi
	call	freeaddrinfo@PLT
	.loc 1 124 1
	nop
	leave
	.cfi_def_cfa 7, 8
	ret
	.cfi_endproc
.LFE323:
	.size	cleanup_connection, .-cleanup_connection
	.section	.rodata
	.align 8
.LC1:
	.string	"\033[31m[-] Port Value < 1024 ! keep port value higher than 1024 \n\033[0m"
.LC2:
	.string	"\033[31m[-] getaddrinfo: %s\n\033[0m"
	.align 8
.LC3:
	.string	"\033[31m[-] server: socket (%s:%s)"
	.align 8
.LC4:
	.string	"\033[31m\n[-] Connection failed to server %d (%s:%s)\n\033[0m"
	.align 8
.LC5:
	.string	"\033[31m    Error: %s (code: %d)\n\n\033[0m"
	.align 8
.LC6:
	.string	"\033[31m\n[-] (%d) temp = NULL, connection failed %d\n\033[0m"
	.align 8
.LC7:
	.string	"\033[32m\n[+] Connection established to server %d\n\033[0m"
	.align 8
.LC8:
	.string	"\033[32m    Server address: %s:%s\n\033[0m"
	.text
	.globl	connect_server
	.type	connect_server, @function
connect_server:
.LFB324:
	.loc 1 127 1
	.cfi_startproc
	endbr64
	pushq	%rbp
	.cfi_def_cfa_offset 16
	.cfi_offset 6, -16
	movq	%rsp, %rbp
	.cfi_def_cfa_register 6
	pushq	%rbx
	subq	$168, %rsp
	.cfi_offset 3, -24
	movq	%rdi, -152(%rbp)
	movq	%rsi, -160(%rbp)
	movl	%edx, -164(%rbp)
	.loc 1 127 1
	movq	%fs:40, %rax
	movq	%rax, -24(%rbp)
	xorl	%eax, %eax
	.loc 1 129 9
	movl	$1, -140(%rbp)
	.loc 1 131 7
	movq	-152(%rbp), %rax
	movq	48(%rax), %rax
	.loc 1 131 24
	movl	-164(%rbp), %edx
	movslq	%edx, %rdx
	salq	$2, %rdx
	addq	%rdx, %rax
	.loc 1 131 39
	movl	$-1, (%rax)
	.loc 1 132 29
	movq	-160(%rbp), %rax
	movl	$-1, (%rax)
	.loc 1 135 5
	leaq	-128(%rbp), %rax
	movl	$48, %edx
	movl	$0, %esi
	movq	%rax, %rdi
	call	memset@PLT
	.loc 1 136 21
	movl	$0, -124(%rbp)
	.loc 1 137 23
	movl	$1, -120(%rbp)
	.loc 1 139 21
	movq	-160(%rbp), %rax
	movq	8(%rax), %rax
	.loc 1 139 9
	movq	%rax, %rdi
	call	atoi@PLT
	.loc 1 139 8 discriminator 1
	cmpl	$1024, %eax
	jg	.L21
	.loc 1 141 9
	movq	stderr(%rip), %rax
	movq	%rax, %rcx
	movl	$67, %edx
	movl	$1, %esi
	leaq	.LC1(%rip), %rax
	movq	%rax, %rdi
	call	fwrite@PLT
	.loc 1 142 9
	movl	$1, %edi
	call	exit@PLT
.L21:
	.loc 1 145 19
	movq	-152(%rbp), %rax
	leaq	40(%rax), %rcx
	.loc 1 145 58
	movq	-160(%rbp), %rax
	movq	8(%rax), %rsi
	.loc 1 145 38
	movq	-160(%rbp), %rax
	movq	16(%rax), %rax
	.loc 1 145 19
	leaq	-128(%rbp), %rdx
	movq	%rax, %rdi
	call	getaddrinfo@PLT
	movl	%eax, -140(%rbp)
	.loc 1 145 8 discriminator 1
	cmpl	$0, -140(%rbp)
	jns	.L22
	.loc 1 147 9
	movl	-140(%rbp), %eax
	movl	%eax, %edi
	call	gai_strerror@PLT
	movq	%rax, %rdx
	.loc 1 147 9 is_stmt 0 discriminator 1
	movq	stderr(%rip), %rax
	leaq	.LC2(%rip), %rcx
	movq	%rcx, %rsi
	movq	%rax, %rdi
	movl	$0, %eax
	call	fprintf@PLT
	.loc 1 148 16 is_stmt 1
	movl	$-1, -140(%rbp)
	.loc 1 149 9
	jmp	.L23
.L22:
	.loc 1 152 15
	movq	-152(%rbp), %rax
	movq	40(%rax), %rax
	movq	%rax, -136(%rbp)
	.loc 1 152 5
	nop
	.loc 1 152 43 discriminator 1
	cmpq	$0, -136(%rbp)
	je	.L27
	.loc 1 154 40
	movq	-136(%rbp), %rax
	movl	12(%rax), %edx
	movq	-136(%rbp), %rax
	movl	8(%rax), %ecx
	movq	-136(%rbp), %rax
	movl	4(%rax), %eax
	movl	%ecx, %esi
	movl	%eax, %edi
	call	socket@PLT
	.loc 1 154 38 discriminator 1
	movq	-160(%rbp), %rdx
	movl	%eax, (%rdx)
	.loc 1 154 21 discriminator 1
	movq	-160(%rbp), %rax
	movl	(%rax), %eax
	.loc 1 154 12 discriminator 1
	testl	%eax, %eax
	jns	.L25
	.loc 1 156 13
	movq	-160(%rbp), %rax
	movq	8(%rax), %rcx
	movq	-160(%rbp), %rax
	movq	16(%rax), %rdx
	movq	stderr(%rip), %rax
	leaq	.LC3(%rip), %rsi
	movq	%rax, %rdi
	movl	$0, %eax
	call	fprintf@PLT
	.loc 1 157 20
	movl	$-1, -140(%rbp)
	.loc 1 158 13
	jmp	.L23
.L25:
	.loc 1 161 14
	movq	-136(%rbp), %rax
	movl	16(%rax), %edx
	.loc 1 161 51
	movq	-136(%rbp), %rax
	movq	24(%rax), %rax
	.loc 1 161 14
	movq	%rax, %rcx
	movq	-160(%rbp), %rax
	movl	(%rax), %eax
	movq	%rcx, %rsi
	movl	%eax, %edi
	call	connect@PLT
	.loc 1 161 12 discriminator 1
	testl	%eax, %eax
	jns	.L32
	.loc 1 163 13
	movq	-160(%rbp), %rax
	movq	8(%rax), %rcx
	movq	-160(%rbp), %rax
	movq	16(%rax), %rdx
	movl	-164(%rbp), %eax
	leal	1(%rax), %esi
	movq	stderr(%rip), %rax
	movq	%rcx, %r8
	movq	%rdx, %rcx
	movl	%esi, %edx
	leaq	.LC4(%rip), %rsi
	movq	%rax, %rdi
	movl	$0, %eax
	call	fprintf@PLT
	.loc 1 164 88
	call	__errno_location@PLT
	.loc 1 164 13 discriminator 1
	movl	(%rax), %ebx
	.loc 1 164 80 discriminator 1
	call	__errno_location@PLT
	.loc 1 164 13 discriminator 2
	movl	(%rax), %eax
	movl	%eax, %edi
	call	strerror@PLT
	movq	%rax, %rdx
	.loc 1 164 13 is_stmt 0 discriminator 3
	movq	stderr(%rip), %rax
	movl	%ebx, %ecx
	leaq	.LC5(%rip), %rsi
	movq	%rax, %rdi
	movl	$0, %eax
	call	fprintf@PLT
	.loc 1 165 13 is_stmt 1
	movq	-160(%rbp), %rax
	movl	(%rax), %eax
	movl	%eax, %edi
	call	close@PLT
	.loc 1 166 20
	movl	$-1, -140(%rbp)
	.loc 1 167 13
	jmp	.L23
.L32:
	.loc 1 170 9
	nop
.L27:
	.loc 1 173 8
	cmpq	$0, -136(%rbp)
	jne	.L29
	.loc 1 175 95
	call	__errno_location@PLT
	.loc 1 175 9 discriminator 1
	movl	(%rax), %ebx
	call	gettid@PLT
	movl	%eax, %edx
	.loc 1 175 9 is_stmt 0 discriminator 2
	movq	stderr(%rip), %rax
	movl	%ebx, %ecx
	leaq	.LC6(%rip), %rsi
	movq	%rax, %rdi
	movl	$0, %eax
	call	fprintf@PLT
	.loc 1 176 16 is_stmt 1
	movl	$-1, -140(%rbp)
	.loc 1 177 9
	jmp	.L23
.L29:
	.loc 1 180 7
	movq	-152(%rbp), %rax
	movq	48(%rax), %rax
	.loc 1 180 24
	movl	-164(%rbp), %edx
	movslq	%edx, %rdx
	salq	$2, %rdx
	addq	%rax, %rdx
	.loc 1 180 48
	movq	-160(%rbp), %rax
	movl	(%rax), %eax
	.loc 1 180 39
	movl	%eax, (%rdx)
	.loc 1 181 7
	movq	-152(%rbp), %rax
	movl	60(%rax), %eax
	.loc 1 181 36
	leal	1(%rax), %edx
	movq	-152(%rbp), %rax
	movl	%edx, 60(%rax)
	.loc 1 184 32
	movq	-136(%rbp), %rax
	movq	24(%rax), %rax
	movq	%rax, %rdi
	call	get_in_addr
	movq	%rax, %rsi
	.loc 1 184 5 discriminator 1
	movq	-136(%rbp), %rax
	movl	4(%rax), %eax
	leaq	-80(%rbp), %rdx
	movl	$46, %ecx
	movl	%eax, %edi
	call	inet_ntop@PLT
	.loc 1 185 5
	movl	-164(%rbp), %eax
	addl	$1, %eax
	movl	%eax, %esi
	leaq	.LC7(%rip), %rax
	movq	%rax, %rdi
	movl	$0, %eax
	call	printf@PLT
	.loc 1 186 5
	movq	-160(%rbp), %rax
	movq	8(%rax), %rdx
	movq	-160(%rbp), %rax
	movq	16(%rax), %rax
	movq	%rax, %rsi
	leaq	.LC8(%rip), %rax
	movq	%rax, %rdi
	movl	$0, %eax
	call	printf@PLT
.L23:
	.loc 1 192 5
	movq	-136(%rbp), %rax
	movq	%rax, %rdi
	call	freeaddrinfo@PLT
	.loc 1 193 12
	movl	-140(%rbp), %eax
	.loc 1 194 1
	movq	-24(%rbp), %rdx
	subq	%fs:40, %rdx
	je	.L31
	call	__stack_chk_fail@PLT
.L31:
	movq	-8(%rbp), %rbx
	leave
	.cfi_def_cfa 7, 8
	ret
	.cfi_endproc
.LFE324:
	.size	connect_server, .-connect_server
	.section	.rodata
.LC9:
	.string	"\033[36m\n[*] File hash: %d\n\033[0m"
	.align 8
.LC10:
	.string	"\033[36m    Distribution starting at server %d\n\n\033[0m"
	.align 8
.LC11:
	.string	"\033[36m[*] Server %d will store chunks: \033[0m"
.LC12:
	.string	"%d "
.LC13:
	.string	"\n"
	.align 8
.LC14:
	.string	"\033[31m[-] Send failed, error no: %d \n\033[0m"
	.align 8
.LC15:
	.string	"\033[31m[-] Recv failed, error no: %d \n\033[0m"
	.align 8
.LC16:
	.string	"\033[33m[-] Client Closed the Connection, error no: %d \n\033[0m"
.LC17:
	.string	"ack\t\n0\t\n"
	.string	""
.LC18:
	.string	"nack recieved "
	.align 8
.LC19:
	.string	"\033[31m\n=========================================\n\033[0m"
	.align 8
.LC20:
	.string	"\033[31m    PUT OPERATION FAILED\n\033[0m"
.LC21:
	.string	"\033[31m    File: %s\n\033[0m"
	.align 8
.LC22:
	.string	"\033[31m    Cannot store file reliably\n\033[0m"
	.align 8
.LC23:
	.string	"\033[31m    Missing redundancy for chunk %d\n\033[0m"
	.align 8
.LC24:
	.string	"\033[31m=========================================\n\n\033[0m"
	.align 8
.LC25:
	.string	"\033[32m\n=========================================\n\033[0m"
	.align 8
.LC26:
	.string	"\033[32m    FILE UPLOAD SUCCESSFUL\n\033[0m"
.LC27:
	.string	"\033[32m    File: %s\n\033[0m"
	.align 8
.LC28:
	.string	"\033[32m    All chunks stored with redundancy\n\033[0m"
	.align 8
.LC29:
	.string	"\033[32m=========================================\n\n\033[0m"
	.text
	.globl	connect_and_put_chunks
	.type	connect_and_put_chunks, @function
connect_and_put_chunks:
.LFB325:
	.loc 1 197 1
	.cfi_startproc
	endbr64
	pushq	%rbp
	.cfi_def_cfa_offset 16
	.cfi_offset 6, -16
	movq	%rsp, %rbp
	.cfi_def_cfa_register 6
	leaq	-28672(%rsp), %r11
.LPSRL0:
	subq	$4096, %rsp
	orq	$0, (%rsp)
	cmpq	%r11, %rsp
	jne	.LPSRL0
	subq	$2176, %rsp
	movq	%rdi, -30824(%rbp)
	movq	%rsi, -30832(%rbp)
	movq	%rdx, -30840(%rbp)
	movl	%ecx, -30844(%rbp)
	.loc 1 197 1
	movq	%fs:40, %rax
	movq	%rax, -8(%rbp)
	xorl	%eax, %eax
	.loc 1 199 5
	movl	-30844(%rbp), %eax
	movl	%eax, %esi
	leaq	.LC9(%rip), %rax
	movq	%rax, %rdi
	movl	$0, %eax
	call	printf@PLT
	.loc 1 200 77
	movq	-30824(%rbp), %rax
	movl	56(%rax), %ecx
	.loc 1 200 73
	movl	-30844(%rbp), %eax
	cltd
	idivl	%ecx
	movl	%edx, %ecx
	movl	%ecx, %eax
	.loc 1 200 5
	addl	$1, %eax
	movl	%eax, %esi
	leaq	.LC10(%rip), %rax
	movq	%rax, %rdi
	movl	$0, %eax
	call	printf@PLT
	.loc 1 202 22
	movq	-30824(%rbp), %rax
	movq	32(%rax), %rax
	movq	%rax, -30776(%rbp)
	.loc 1 203 9
	movl	$0, -30816(%rbp)
	.loc 1 204 36
	movq	-30824(%rbp), %rax
	movl	56(%rax), %eax
	cltq
	.loc 1 204 27
	salq	$2, %rax
	movq	%rax, %rdi
	call	malloc@PLT
	movq	%rax, %rdx
	.loc 1 204 25 discriminator 1
	movq	-30824(%rbp), %rax
	movq	%rdx, 48(%rax)
	.loc 1 209 5
	leaq	-30752(%rbp), %rax
	movl	$16, %edx
	movl	$0, %esi
	movq	%rax, %rdi
	call	memset@PLT
	.loc 1 211 11
	jmp	.L34
.L50:
.LBB4:
	.loc 1 213 13
	movl	-30816(%rbp), %edx
	movq	-30776(%rbp), %rcx
	movq	-30824(%rbp), %rax
	movq	%rcx, %rsi
	movq	%rax, %rdi
	call	connect_server
	.loc 1 213 12 discriminator 1
	testl	%eax, %eax
	js	.L56
	.loc 1 216 26
	movl	-30816(%rbp), %eax
	subl	-30844(%rbp), %eax
	.loc 1 216 63
	testl	%eax, %eax
	jns	.L37
	.loc 1 216 63 is_stmt 0 discriminator 1
	movq	-30824(%rbp), %rax
	movl	56(%rax), %eax
	jmp	.L38
.L37:
	.loc 1 216 63 discriminator 2
	movl	-30816(%rbp), %eax
	subl	-30844(%rbp), %eax
.L38:
	.loc 1 216 13 is_stmt 1 discriminator 4
	movl	%eax, -30812(%rbp)
	.loc 1 218 9
	movl	-30816(%rbp), %eax
	addl	$1, %eax
	movl	%eax, %esi
	leaq	.LC11(%rip), %rax
	movq	%rax, %rdi
	movl	$0, %eax
	call	printf@PLT
.LBB5:
	.loc 1 219 18
	movl	$0, -30808(%rbp)
	.loc 1 219 9
	jmp	.L39
.L40:
	.loc 1 221 34
	movl	-30812(%rbp), %edx
	movl	-30808(%rbp), %eax
	leal	(%rdx,%rax), %ecx
	.loc 1 221 43
	movq	-30824(%rbp), %rax
	movl	56(%rax), %esi
	.loc 1 221 39
	movl	%ecx, %eax
	cltd
	idivl	%esi
	movl	%edx, %ecx
	movl	%ecx, %eax
	.loc 1 221 13
	addl	$1, %eax
	movl	%eax, %esi
	leaq	.LC12(%rip), %rax
	movq	%rax, %rdi
	movl	$0, %eax
	call	printf@PLT
	.loc 1 219 63 discriminator 3
	addl	$1, -30808(%rbp)
.L39:
	.loc 1 219 27 discriminator 1
	cmpl	$1, -30808(%rbp)
	jle	.L40
.LBE5:
	.loc 1 223 9
	leaq	.LC13(%rip), %rax
	movq	%rax, %rdi
	call	puts@PLT
.LBB6:
	.loc 1 225 18
	movl	$0, -30804(%rbp)
	.loc 1 225 9
	jmp	.L41
.L49:
.LBB7:
	.loc 1 228 28
	movl	-30812(%rbp), %edx
	movl	-30804(%rbp), %eax
	addl	%eax, %edx
	.loc 1 228 37
	movq	-30824(%rbp), %rax
	movl	56(%rax), %ecx
	.loc 1 228 19
	movl	%edx, %eax
	cltd
	idivl	%ecx
	movl	%edx, -30812(%rbp)
	.loc 1 229 26
	movl	-30812(%rbp), %eax
	cltq
	movl	-30752(%rbp,%rax,4), %eax
	.loc 1 229 33
	leal	1(%rax), %edx
	movl	-30812(%rbp), %eax
	cltq
	movl	%edx, -30752(%rbp,%rax,4)
	.loc 1 231 30
	movb	$1, -30764(%rbp)
	movl	-30812(%rbp), %eax
	movb	%al, -30763(%rbp)
	.loc 1 234 45
	movq	-30824(%rbp), %rax
	movq	16(%rax), %rax
	.loc 1 234 36
	movq	%rax, %rdi
	call	strlen@PLT
	.loc 1 231 30
	movl	%eax, -30760(%rbp)
	.loc 1 235 43
	movl	-30812(%rbp), %eax
	cltq
	leaq	0(,%rax,4), %rdx
	movq	-30840(%rbp), %rax
	addq	%rdx, %rax
	movl	(%rax), %eax
	.loc 1 231 30
	movl	%eax, -30756(%rbp)
.LBB8:
	.loc 1 237 24
	movq	-30776(%rbp), %rax
	movl	(%rax), %eax
	leaq	-30764(%rbp), %rsi
	movl	$0, %ecx
	movl	$12, %edx
	movl	%eax, %edi
	call	send@PLT
	.loc 1 237 24 is_stmt 0 discriminator 1
	movl	%eax, -30796(%rbp)
	cmpl	$0, -30796(%rbp)
	jg	.L42
	call	__errno_location@PLT
	movl	(%rax), %eax
	movl	%eax, %esi
	leaq	.LC14(%rip), %rax
	movq	%rax, %rdi
	movl	$0, %eax
	call	printf@PLT
	.loc 1 237 24
	jmp	.L36
.L42:
	.loc 1 237 24 discriminator 2
	movl	-30796(%rbp), %eax
.LBE8:
	.loc 1 237 22 is_stmt 1 discriminator 2
	movl	%eax, -30792(%rbp)
.LBB9:
	.loc 1 239 24
	movl	-30760(%rbp), %eax
	movl	%eax, %edx
	movq	-30824(%rbp), %rax
	movq	16(%rax), %rsi
	movq	-30776(%rbp), %rax
	movl	(%rax), %eax
	movl	$0, %ecx
	movl	%eax, %edi
	call	send@PLT
	.loc 1 239 24 is_stmt 0 discriminator 1
	movl	%eax, -30788(%rbp)
	cmpl	$0, -30788(%rbp)
	jg	.L44
	call	__errno_location@PLT
	movl	(%rax), %eax
	movl	%eax, %esi
	leaq	.LC14(%rip), %rax
	movq	%rax, %rdi
	movl	$0, %eax
	call	printf@PLT
	.loc 1 239 24
	jmp	.L36
.L44:
	.loc 1 239 24 discriminator 2
	movl	-30788(%rbp), %eax
.LBE9:
	.loc 1 239 22 is_stmt 1 discriminator 2
	movl	%eax, -30792(%rbp)
.LBB10:
	.loc 1 241 24
	movl	-30812(%rbp), %eax
	cltq
	leaq	0(,%rax,4), %rdx
	movq	-30840(%rbp), %rax
	addq	%rdx, %rax
	movl	(%rax), %eax
	movslq	%eax, %rdx
	movl	-30812(%rbp), %eax
	cltq
	leaq	0(,%rax,8), %rcx
	movq	-30832(%rbp), %rax
	addq	%rcx, %rax
	movq	(%rax), %rsi
	movq	-30776(%rbp), %rax
	movl	(%rax), %eax
	movl	$0, %ecx
	movl	%eax, %edi
	call	send@PLT
	.loc 1 241 24 is_stmt 0 discriminator 1
	movl	%eax, -30784(%rbp)
	cmpl	$0, -30784(%rbp)
	jg	.L45
	call	__errno_location@PLT
	movl	(%rax), %eax
	movl	%eax, %esi
	leaq	.LC14(%rip), %rax
	movq	%rax, %rdi
	movl	$0, %eax
	call	printf@PLT
	.loc 1 241 24
	jmp	.L36
.L45:
	.loc 1 241 24 discriminator 2
	movl	-30784(%rbp), %eax
.LBE10:
	.loc 1 241 22 is_stmt 1 discriminator 2
	movl	%eax, -30792(%rbp)
	.loc 1 243 13
	leaq	-30736(%rbp), %rax
	movl	$30720, %edx
	movl	$0, %esi
	movq	%rax, %rdi
	call	memset@PLT
.LBB11:
	.loc 1 244 24
	movq	-30776(%rbp), %rax
	movl	(%rax), %eax
	leaq	-30736(%rbp), %rsi
	movl	$0, %ecx
	movl	$30720, %edx
	movl	%eax, %edi
	call	recv@PLT
	.loc 1 244 24 is_stmt 0 discriminator 1
	movl	%eax, -30780(%rbp)
	cmpl	$0, -30780(%rbp)
	jns	.L46
	call	__errno_location@PLT
	movl	(%rax), %eax
	movl	%eax, %esi
	leaq	.LC15(%rip), %rax
	movq	%rax, %rdi
	movl	$0, %eax
	call	printf@PLT
	.loc 1 244 24
	jmp	.L36
.L46:
	.loc 1 244 24 discriminator 2
	cmpl	$0, -30780(%rbp)
	jne	.L47
	.loc 1 244 24 discriminator 3
	movq	-30776(%rbp), %rax
	movl	(%rax), %eax
	movl	%eax, %edi
	call	close@PLT
	.loc 1 244 24 discriminator 1
	call	__errno_location@PLT
	.loc 1 244 24 discriminator 2
	movl	(%rax), %eax
	movl	%eax, %esi
	leaq	.LC16(%rip), %rax
	movq	%rax, %rdi
	movl	$0, %eax
	call	printf@PLT
	.loc 1 244 24
	jmp	.L36
.L47:
	.loc 1 244 24 discriminator 4
	movl	-30780(%rbp), %eax
.LBE11:
	.loc 1 244 22 is_stmt 1 discriminator 4
	movl	%eax, -30792(%rbp)
	.loc 1 246 17
	leaq	-30736(%rbp), %rax
	movl	$7, %edx
	leaq	.LC17(%rip), %rcx
	movq	%rcx, %rsi
	movq	%rax, %rdi
	call	strncmp@PLT
	.loc 1 246 16 discriminator 1
	testl	%eax, %eax
	je	.L48
	.loc 1 248 17
	leaq	.LC18(%rip), %rax
	movq	%rax, %rdi
	call	puts@PLT
	.loc 1 249 17
	jmp	.L36
.L48:
.LBE7:
	.loc 1 225 63 discriminator 2
	addl	$1, -30804(%rbp)
.L41:
	.loc 1 225 27 discriminator 1
	cmpl	$1, -30804(%rbp)
	jle	.L49
.LBE6:
	.loc 1 255 5
	jmp	.L36
.L56:
	.loc 1 214 13
	nop
.L36:
	.loc 1 256 9
	movq	-30776(%rbp), %rax
	movq	%rax, %rdi
	call	cleanup_current_connection
	.loc 1 257 10
	addl	$1, -30816(%rbp)
	.loc 1 258 17
	movq	-30776(%rbp), %rax
	movq	32(%rax), %rax
	movq	%rax, -30776(%rbp)
.L34:
.LBE4:
	.loc 1 211 12
	cmpq	$0, -30776(%rbp)
	jne	.L50
.LBB12:
	.loc 1 261 14
	movl	$0, -30800(%rbp)
	.loc 1 261 5
	jmp	.L51
.L54:
	.loc 1 263 26
	movl	-30800(%rbp), %eax
	cltq
	movl	-30752(%rbp,%rax,4), %eax
	.loc 1 263 12
	testl	%eax, %eax
	jg	.L52
	.loc 1 265 13
	leaq	.LC19(%rip), %rax
	movq	%rax, %rdi
	movl	$0, %eax
	call	printf@PLT
	.loc 1 266 13
	leaq	.LC20(%rip), %rax
	movq	%rax, %rdi
	movl	$0, %eax
	call	printf@PLT
	.loc 1 267 13
	movq	-30824(%rbp), %rax
	movq	16(%rax), %rax
	movq	%rax, %rsi
	leaq	.LC21(%rip), %rax
	movq	%rax, %rdi
	movl	$0, %eax
	call	printf@PLT
	.loc 1 268 13
	leaq	.LC22(%rip), %rax
	movq	%rax, %rdi
	movl	$0, %eax
	call	printf@PLT
	.loc 1 269 13
	movl	-30800(%rbp), %eax
	addl	$1, %eax
	movl	%eax, %esi
	leaq	.LC23(%rip), %rax
	movq	%rax, %rdi
	movl	$0, %eax
	call	printf@PLT
	.loc 1 270 13
	leaq	.LC24(%rip), %rax
	movq	%rax, %rdi
	movl	$0, %eax
	call	printf@PLT
	jmp	.L33
.L52:
	.loc 1 261 43 discriminator 2
	addl	$1, -30800(%rbp)
.L51:
	.loc 1 261 23 discriminator 1
	cmpl	$3, -30800(%rbp)
	jle	.L54
.LBE12:
	.loc 1 275 5
	movq	-30824(%rbp), %rax
	movq	%rax, %rdi
	call	cleanup_connection
	.loc 1 278 5
	leaq	.LC25(%rip), %rax
	movq	%rax, %rdi
	movl	$0, %eax
	call	printf@PLT
	.loc 1 279 5
	leaq	.LC26(%rip), %rax
	movq	%rax, %rdi
	movl	$0, %eax
	call	printf@PLT
	.loc 1 280 5
	movq	-30824(%rbp), %rax
	movq	16(%rax), %rax
	movq	%rax, %rsi
	leaq	.LC27(%rip), %rax
	movq	%rax, %rdi
	movl	$0, %eax
	call	printf@PLT
	.loc 1 281 5
	leaq	.LC28(%rip), %rax
	movq	%rax, %rdi
	movl	$0, %eax
	call	printf@PLT
	.loc 1 282 5
	leaq	.LC29(%rip), %rax
	movq	%rax, %rdi
	movl	$0, %eax
	call	printf@PLT
.L33:
	.loc 1 283 1
	movq	-8(%rbp), %rax
	subq	%fs:40, %rax
	je	.L55
	call	__stack_chk_fail@PLT
.L55:
	leave
	.cfi_def_cfa 7, 8
	ret
	.cfi_endproc
.LFE325:
	.size	connect_and_put_chunks, .-connect_and_put_chunks
	.globl	get_file_chunks_and_join
	.type	get_file_chunks_and_join, @function
get_file_chunks_and_join:
.LFB326:
	.loc 1 286 1
	.cfi_startproc
	endbr64
	pushq	%rbp
	.cfi_def_cfa_offset 16
	.cfi_offset 6, -16
	movq	%rsp, %rbp
	.cfi_def_cfa_register 6
	movq	%rdi, -8(%rbp)
	movl	%esi, -12(%rbp)
	.loc 1 287 1
	nop
	popq	%rbp
	.cfi_def_cfa 7, 8
	ret
	.cfi_endproc
.LFE326:
	.size	get_file_chunks_and_join, .-get_file_chunks_and_join
	.section	.rodata
.LC30:
	.string	"rb"
	.align 8
.LC31:
	.string	"\033[31m[-] Error opening file %d \n\033[0m"
	.align 8
.LC32:
	.string	"\033[36m\n[*] Processing file: %s\n\033[0m"
	.align 8
.LC33:
	.string	"\033[36m    Total file size: %d bytes\n\033[0m"
	.align 8
.LC34:
	.string	"\033[36m    Dividing into %d chunks\n\n\033[0m"
	.align 8
.LC35:
	.string	"\033[36m[*] Created chunk %d of %d\n\033[0m"
	.align 8
.LC36:
	.string	"\033[36m    Chunk size: %d bytes\n\n\033[0m"
	.text
	.globl	put_file
	.type	put_file, @function
put_file:
.LFB327:
	.loc 1 290 1
	.cfi_startproc
	endbr64
	pushq	%rbp
	.cfi_def_cfa_offset 16
	.cfi_offset 6, -16
	movq	%rsp, %rbp
	.cfi_def_cfa_register 6
	addq	$-128, %rsp
	movq	%rdi, -120(%rbp)
	.loc 1 290 1
	movq	%fs:40, %rax
	movq	%rax, -8(%rbp)
	xorl	%eax, %eax
	.loc 1 291 24
	movq	-120(%rbp), %rax
	movq	16(%rax), %rax
	.loc 1 291 16
	leaq	.LC30(%rip), %rdx
	movq	%rdx, %rsi
	movq	%rax, %rdi
	call	fopen@PLT
	movq	%rax, -80(%rbp)
	.loc 1 292 8
	cmpq	$0, -80(%rbp)
	jne	.L59
	.loc 1 294 67
	call	__errno_location@PLT
	.loc 1 294 9 discriminator 1
	movl	(%rax), %edx
	movq	stderr(%rip), %rax
	leaq	.LC31(%rip), %rcx
	movq	%rcx, %rsi
	movq	%rax, %rdi
	movl	$0, %eax
	call	fprintf@PLT
	jmp	.L58
.L59:
	.loc 1 297 52
	movq	-120(%rbp), %rax
	movq	16(%rax), %rax
	.loc 1 297 43
	movq	%rax, %rdi
	call	strlen@PLT
	.loc 1 297 21 discriminator 1
	movl	%eax, %edx
	movq	-120(%rbp), %rax
	movq	16(%rax), %rax
	movl	%edx, %esi
	movq	%rax, %rdi
	call	str2md5
	movl	%eax, -88(%rbp)
	.loc 1 299 5
	movq	-80(%rbp), %rax
	movl	$2, %edx
	movl	$0, %esi
	movq	%rax, %rdi
	call	fseek@PLT
	.loc 1 300 16
	movq	-80(%rbp), %rax
	movq	%rax, %rdi
	call	ftell@PLT
	.loc 1 300 9 discriminator 1
	movl	%eax, -84(%rbp)
	.loc 1 301 5
	movq	-80(%rbp), %rax
	movl	$0, %edx
	movl	$0, %esi
	movq	%rax, %rdi
	call	fseek@PLT
	.loc 1 305 9
	movl	$0, -100(%rbp)
	.loc 1 307 5
	movq	-120(%rbp), %rax
	movq	16(%rax), %rax
	movq	%rax, %rsi
	leaq	.LC32(%rip), %rax
	movq	%rax, %rdi
	movl	$0, %eax
	call	printf@PLT
	.loc 1 308 5
	movl	-84(%rbp), %eax
	movl	%eax, %esi
	leaq	.LC33(%rip), %rax
	movq	%rax, %rdi
	movl	$0, %eax
	call	printf@PLT
	.loc 1 309 5
	movl	$4, %esi
	leaq	.LC34(%rip), %rax
	movq	%rax, %rdi
	movl	$0, %eax
	call	printf@PLT
.LBB13:
	.loc 1 311 14
	movl	$0, -96(%rbp)
	.loc 1 311 5
	jmp	.L61
.L64:
.LBB14:
	.loc 1 314 12
	cmpl	$3, -96(%rbp)
	jne	.L62
	.loc 1 315 24
	movl	-84(%rbp), %eax
	subl	-100(%rbp), %eax
	movl	%eax, -92(%rbp)
	jmp	.L63
.L62:
	.loc 1 317 24
	movl	-84(%rbp), %eax
	leal	3(%rax), %edx
	testl	%eax, %eax
	cmovs	%edx, %eax
	sarl	$2, %eax
	movl	%eax, -92(%rbp)
.L63:
	.loc 1 318 36
	movl	-92(%rbp), %eax
	addl	%eax, -100(%rbp)
	.loc 1 320 24
	movl	-96(%rbp), %eax
	cltq
	movl	-92(%rbp), %edx
	movl	%edx, -64(%rbp,%rax,4)
	.loc 1 322 23
	movl	-92(%rbp), %eax
	cltq
	movq	%rax, %rdi
	call	malloc@PLT
	movq	%rax, -72(%rbp)
	.loc 1 323 19
	movl	-96(%rbp), %eax
	cltq
	movq	-72(%rbp), %rdx
	movq	%rdx, -48(%rbp,%rax,8)
	.loc 1 324 9
	movl	-92(%rbp), %eax
	movslq	%eax, %rdx
	movq	-80(%rbp), %rcx
	movq	-72(%rbp), %rax
	movl	$1, %esi
	movq	%rax, %rdi
	call	fread@PLT
	.loc 1 326 9
	movl	-96(%rbp), %eax
	addl	$1, %eax
	movl	$4, %edx
	movl	%eax, %esi
	leaq	.LC35(%rip), %rax
	movq	%rax, %rdi
	movl	$0, %eax
	call	printf@PLT
	.loc 1 327 9
	movl	-92(%rbp), %eax
	movl	%eax, %esi
	leaq	.LC36(%rip), %rax
	movq	%rax, %rdi
	movl	$0, %eax
	call	printf@PLT
.LBE14:
	.loc 1 311 43 discriminator 2
	addl	$1, -96(%rbp)
.L61:
	.loc 1 311 23 discriminator 1
	cmpl	$3, -96(%rbp)
	jle	.L64
.LBE13:
	.loc 1 331 5
	movl	-88(%rbp), %eax
	movl	%eax, %esi
	leaq	.LC9(%rip), %rax
	movq	%rax, %rdi
	movl	$0, %eax
	call	printf@PLT
	.loc 1 332 77
	movq	-120(%rbp), %rax
	movl	56(%rax), %eax
	movl	%eax, %ecx
	.loc 1 332 73
	movl	-88(%rbp), %eax
	movl	$0, %edx
	divl	%ecx
	movl	%edx, %eax
	.loc 1 332 5
	addl	$1, %eax
	movl	%eax, %esi
	leaq	.LC10(%rip), %rax
	movq	%rax, %rdi
	movl	$0, %eax
	call	printf@PLT
	.loc 1 334 62
	movq	-120(%rbp), %rax
	movl	56(%rax), %eax
	movl	%eax, %ecx
	.loc 1 334 58
	movl	-88(%rbp), %eax
	movl	$0, %edx
	divl	%ecx
	movl	%edx, %eax
	.loc 1 334 5
	movl	%eax, %ecx
	leaq	-64(%rbp), %rdx
	leaq	-48(%rbp), %rsi
	movq	-120(%rbp), %rax
	movq	%rax, %rdi
	call	connect_and_put_chunks
.L58:
	.loc 1 335 1
	movq	-8(%rbp), %rax
	subq	%fs:40, %rax
	je	.L65
	call	__stack_chk_fail@PLT
.L65:
	leave
	.cfi_def_cfa 7, 8
	ret
	.cfi_endproc
.LFE327:
	.size	put_file, .-put_file
	.section	.rodata
.LC37:
	.string	"NACK recieved %d\n"
.LC38:
	.string	"ACK!!!!!!! %d\n"
	.align 8
.LC39:
	.string	"Server has fucking shit %d %d %d %d (numbytes read) %d\n"
	.align 8
.LC40:
	.string	"recieved chunk bitch from server %d - chunk %d\n"
	.align 8
.LC41:
	.string	"\033[31m    GET OPERATION FAILED\n\033[0m"
	.align 8
.LC42:
	.string	"\033[31m    Cannot reconstruct file\n\033[0m"
	.align 8
.LC43:
	.string	"\033[31m    Missing chunk %d\n\033[0m"
.LC44:
	.string	"wb"
	.align 8
.LC45:
	.string	"\033[32m    FILE DOWNLOAD SUCCESSFUL\n\033[0m"
	.align 8
.LC46:
	.string	"\033[32m    All chunks retrieved and reassembled\n\033[0m"
	.text
	.globl	get_file
	.type	get_file, @function
get_file:
.LFB328:
	.loc 1 338 1
	.cfi_startproc
	endbr64
	pushq	%rbp
	.cfi_def_cfa_offset 16
	.cfi_offset 6, -16
	movq	%rsp, %rbp
	.cfi_def_cfa_register 6
	leaq	-28672(%rsp), %r11
.LPSRL1:
	subq	$4096, %rsp
	orq	$0, (%rsp)
	cmpq	%r11, %rsp
	jne	.LPSRL1
	subq	$2256, %rsp
	movq	%rdi, -30920(%rbp)
	.loc 1 338 1
	movq	%fs:40, %rax
	movq	%rax, -8(%rbp)
	xorl	%eax, %eax
	.loc 1 340 9
	movl	$0, -30904(%rbp)
	.loc 1 340 16
	movl	$0, -30880(%rbp)
	.loc 1 341 47
	movq	-30920(%rbp), %rax
	movq	16(%rax), %rax
	.loc 1 341 38
	movq	%rax, %rdi
	call	strlen@PLT
	.loc 1 341 16 discriminator 1
	movl	%eax, %edx
	movq	-30920(%rbp), %rax
	movq	16(%rax), %rax
	movl	%edx, %esi
	movq	%rax, %rdi
	call	str2md5
	.loc 1 341 64 discriminator 2
	movq	-30920(%rbp), %rdx
	movl	56(%rdx), %edx
	movl	%edx, %ecx
	.loc 1 341 60 discriminator 2
	movl	$0, %edx
	divl	%ecx
	movl	%edx, %eax
	.loc 1 341 9 discriminator 2
	movl	%eax, -30876(%rbp)
	.loc 1 342 22
	movq	-30920(%rbp), %rax
	movq	32(%rax), %rax
	movq	%rax, -30840(%rbp)
	.loc 1 343 36
	movq	-30920(%rbp), %rax
	movl	56(%rax), %eax
	cltq
	.loc 1 343 27
	salq	$2, %rax
	movq	%rax, %rdi
	call	malloc@PLT
	movq	%rax, %rdx
	.loc 1 343 25 discriminator 1
	movq	-30920(%rbp), %rax
	movq	%rdx, 48(%rax)
	.loc 1 349 5
	leaq	-30768(%rbp), %rax
	movl	$32, %edx
	movl	$0, %esi
	movq	%rax, %rdi
	call	memset@PLT
	.loc 1 350 5
	leaq	-30800(%rbp), %rax
	movl	$16, %edx
	movl	$0, %esi
	movq	%rax, %rdi
	call	memset@PLT
	.loc 1 352 11
	jmp	.L67
.L91:
.LBB15:
	.loc 1 354 13
	movl	-30904(%rbp), %edx
	movq	-30840(%rbp), %rcx
	movq	-30920(%rbp), %rax
	movq	%rcx, %rsi
	movq	%rax, %rdi
	call	connect_server
	.loc 1 354 12 discriminator 1
	testl	%eax, %eax
	js	.L100
	.loc 1 357 26
	movl	-30904(%rbp), %eax
	subl	-30876(%rbp), %eax
	.loc 1 357 63
	testl	%eax, %eax
	jns	.L70
	.loc 1 357 63 is_stmt 0 discriminator 1
	movq	-30920(%rbp), %rax
	movl	56(%rax), %eax
	jmp	.L71
.L70:
	.loc 1 357 63 discriminator 2
	movl	-30904(%rbp), %eax
	subl	-30876(%rbp), %eax
.L71:
	.loc 1 357 13 is_stmt 1 discriminator 4
	movl	%eax, -30900(%rbp)
.LBB16:
	.loc 1 359 18
	movl	$0, -30896(%rbp)
	.loc 1 359 9
	jmp	.L72
.L90:
.LBB17:
	.loc 1 361 28
	movl	-30900(%rbp), %edx
	movl	-30896(%rbp), %eax
	addl	%eax, %edx
	.loc 1 361 37
	movq	-30920(%rbp), %rax
	movl	56(%rax), %ecx
	.loc 1 361 19
	movl	%edx, %eax
	cltd
	idivl	%ecx
	movl	%edx, -30900(%rbp)
	.loc 1 363 30
	movl	-30900(%rbp), %eax
	cltq
	movl	-30800(%rbp,%rax,4), %eax
	.loc 1 363 16
	testl	%eax, %eax
	jg	.L101
	.loc 1 366 30
	movb	$0, -30812(%rbp)
	movl	-30900(%rbp), %eax
	movb	%al, -30811(%rbp)
	.loc 1 369 45
	movq	-30920(%rbp), %rax
	movq	16(%rax), %rax
	.loc 1 369 36
	movq	%rax, %rdi
	call	strlen@PLT
	.loc 1 366 30
	movl	%eax, -30808(%rbp)
	movl	$0, -30804(%rbp)
.LBB18:
	.loc 1 372 24
	movq	-30840(%rbp), %rax
	movl	(%rax), %eax
	leaq	-30812(%rbp), %rsi
	movl	$0, %ecx
	movl	$12, %edx
	movl	%eax, %edi
	call	send@PLT
	.loc 1 372 24 is_stmt 0 discriminator 1
	movl	%eax, -30872(%rbp)
	cmpl	$0, -30872(%rbp)
	jg	.L75
	call	__errno_location@PLT
	movl	(%rax), %eax
	movl	%eax, %esi
	leaq	.LC14(%rip), %rax
	movq	%rax, %rdi
	movl	$0, %eax
	call	printf@PLT
	.loc 1 372 24
	jmp	.L69
.L75:
	.loc 1 372 24 discriminator 2
	movl	-30872(%rbp), %eax
.LBE18:
	.loc 1 372 22 is_stmt 1 discriminator 2
	movl	%eax, -30880(%rbp)
.LBB19:
	.loc 1 375 24
	movq	-30920(%rbp), %rax
	movq	16(%rax), %rax
	movq	%rax, %rdi
	call	strlen@PLT
	movq	%rax, %rdx
	.loc 1 375 24 is_stmt 0 discriminator 1
	movq	-30920(%rbp), %rax
	movq	16(%rax), %rsi
	movq	-30840(%rbp), %rax
	movl	(%rax), %eax
	movl	$0, %ecx
	movl	%eax, %edi
	call	send@PLT
	.loc 1 375 24 discriminator 2
	movl	%eax, -30868(%rbp)
	cmpl	$0, -30868(%rbp)
	jg	.L77
	.loc 1 375 24 discriminator 1
	call	__errno_location@PLT
	movl	(%rax), %eax
	movl	%eax, %esi
	leaq	.LC14(%rip), %rax
	movq	%rax, %rdi
	movl	$0, %eax
	call	printf@PLT
	.loc 1 375 24
	jmp	.L69
.L77:
	.loc 1 375 24 discriminator 2
	movl	-30868(%rbp), %eax
.LBE19:
	.loc 1 375 22 is_stmt 1 discriminator 2
	movl	%eax, -30880(%rbp)
.LBB20:
	.loc 1 378 24
	movq	-30840(%rbp), %rax
	movl	(%rax), %eax
	leaq	-30736(%rbp), %rsi
	movl	$0, %ecx
	movl	$30720, %edx
	movl	%eax, %edi
	call	recv@PLT
	.loc 1 378 24 is_stmt 0 discriminator 1
	movl	%eax, -30864(%rbp)
	cmpl	$0, -30864(%rbp)
	jns	.L78
	call	__errno_location@PLT
	movl	(%rax), %eax
	movl	%eax, %esi
	leaq	.LC15(%rip), %rax
	movq	%rax, %rdi
	movl	$0, %eax
	call	printf@PLT
	.loc 1 378 24
	jmp	.L69
.L78:
	.loc 1 378 24 discriminator 2
	cmpl	$0, -30864(%rbp)
	jne	.L79
	.loc 1 378 24 discriminator 3
	movq	-30840(%rbp), %rax
	movl	(%rax), %eax
	movl	%eax, %edi
	call	close@PLT
	.loc 1 378 24 discriminator 1
	call	__errno_location@PLT
	.loc 1 378 24 discriminator 2
	movl	(%rax), %eax
	movl	%eax, %esi
	leaq	.LC16(%rip), %rax
	movq	%rax, %rdi
	movl	$0, %eax
	call	printf@PLT
	.loc 1 378 24
	jmp	.L69
.L79:
	.loc 1 378 24 discriminator 4
	movl	-30864(%rbp), %eax
.LBE20:
	.loc 1 378 22 is_stmt 1 discriminator 4
	movl	%eax, -30880(%rbp)
	.loc 1 380 17
	leaq	-30736(%rbp), %rax
	movl	$7, %edx
	leaq	.LC17(%rip), %rcx
	movq	%rcx, %rsi
	movq	%rax, %rdi
	call	strncmp@PLT
	.loc 1 380 16 discriminator 1
	testl	%eax, %eax
	je	.L80
	.loc 1 382 17
	movq	stderr(%rip), %rax
	movl	-30880(%rbp), %edx
	leaq	.LC37(%rip), %rcx
	movq	%rcx, %rsi
	movq	%rax, %rdi
	movl	$0, %eax
	call	fprintf@PLT
	.loc 1 383 17
	jmp	.L69
.L80:
	.loc 1 387 17
	movl	-30880(%rbp), %eax
	movl	%eax, %esi
	leaq	.LC38(%rip), %rax
	movq	%rax, %rdi
	movl	$0, %eax
	call	printf@PLT
	.loc 1 390 53
	movl	$12, %edi
	call	malloc@PLT
	movq	%rax, -30824(%rbp)
.LBB21:
	.loc 1 392 24
	movq	-30840(%rbp), %rax
	movl	(%rax), %eax
	movq	-30824(%rbp), %rsi
	movl	$0, %ecx
	movl	$12, %edx
	movl	%eax, %edi
	call	recv@PLT
	.loc 1 392 24 is_stmt 0 discriminator 1
	movl	%eax, -30860(%rbp)
	cmpl	$0, -30860(%rbp)
	jns	.L81
	call	__errno_location@PLT
	movl	(%rax), %eax
	movl	%eax, %esi
	leaq	.LC15(%rip), %rax
	movq	%rax, %rdi
	movl	$0, %eax
	call	printf@PLT
	.loc 1 392 24
	jmp	.L69
.L81:
	.loc 1 392 24 discriminator 2
	cmpl	$0, -30860(%rbp)
	jne	.L82
	.loc 1 392 24 discriminator 3
	movq	-30840(%rbp), %rax
	movl	(%rax), %eax
	movl	%eax, %edi
	call	close@PLT
	.loc 1 392 24 discriminator 1
	call	__errno_location@PLT
	.loc 1 392 24 discriminator 2
	movl	(%rax), %eax
	movl	%eax, %esi
	leaq	.LC16(%rip), %rax
	movq	%rax, %rdi
	movl	$0, %eax
	call	printf@PLT
	.loc 1 392 24
	jmp	.L69
.L82:
	.loc 1 392 24 discriminator 4
	movl	-30860(%rbp), %eax
.LBE21:
	.loc 1 392 22 is_stmt 1 discriminator 4
	movl	%eax, -30880(%rbp)
	.loc 1 394 13
	movq	-30824(%rbp), %rax
	movl	4(%rax), %esi
	movq	-30824(%rbp), %rax
	movl	8(%rax), %ecx
	.loc 1 394 130
	movq	-30824(%rbp), %rax
	movzbl	(%rax), %eax
	.loc 1 394 13
	movzbl	%al, %edx
	.loc 1 394 99
	movq	-30824(%rbp), %rax
	movzbl	1(%rax), %eax
	.loc 1 394 13
	movzbl	%al, %eax
	movl	-30880(%rbp), %edi
	movl	%edi, %r9d
	movl	%esi, %r8d
	movl	%eax, %esi
	leaq	.LC39(%rip), %rax
	movq	%rax, %rdi
	movl	$0, %eax
	call	printf@PLT
	.loc 1 396 17
	movl	$0, -30892(%rbp)
	.loc 1 396 34
	movl	$0, -30856(%rbp)
	.loc 1 397 13
	leaq	-30736(%rbp), %rax
	movl	$30720, %edx
	movl	$0, %esi
	movq	%rax, %rdi
	call	memset@PLT
	.loc 1 398 25
	movl	$0, -30892(%rbp)
	.loc 1 399 55
	movq	-30824(%rbp), %rax
	movl	8(%rax), %eax
	.loc 1 399 29
	movl	%eax, %eax
	movq	%rax, %rdi
	call	malloc@PLT
	movq	%rax, %rdx
	.loc 1 399 27 discriminator 1
	movl	-30900(%rbp), %eax
	cltq
	movq	%rdx, -30768(%rbp,%rax,8)
	.loc 1 400 19
	jmp	.L83
.L86:
	.loc 1 402 17
	leaq	-30736(%rbp), %rax
	movl	$30720, %edx
	movl	$0, %esi
	movq	%rax, %rdi
	call	memset@PLT
.LBB22:
	.loc 1 403 28
	movq	-30840(%rbp), %rax
	movl	(%rax), %eax
	leaq	-30736(%rbp), %rsi
	movl	$0, %ecx
	movl	$30720, %edx
	movl	%eax, %edi
	call	recv@PLT
	.loc 1 403 28 is_stmt 0 discriminator 1
	movl	%eax, -30844(%rbp)
	cmpl	$0, -30844(%rbp)
	jns	.L84
	call	__errno_location@PLT
	movl	(%rax), %eax
	movl	%eax, %esi
	leaq	.LC15(%rip), %rax
	movq	%rax, %rdi
	movl	$0, %eax
	call	printf@PLT
	.loc 1 403 28
	jmp	.L69
.L84:
	.loc 1 403 28 discriminator 2
	cmpl	$0, -30844(%rbp)
	jne	.L85
	.loc 1 403 28 discriminator 3
	movq	-30840(%rbp), %rax
	movl	(%rax), %eax
	movl	%eax, %edi
	call	close@PLT
	.loc 1 403 28 discriminator 1
	call	__errno_location@PLT
	.loc 1 403 28 discriminator 2
	movl	(%rax), %eax
	movl	%eax, %esi
	leaq	.LC16(%rip), %rax
	movq	%rax, %rdi
	movl	$0, %eax
	call	printf@PLT
	.loc 1 403 28
	jmp	.L69
.L85:
	.loc 1 403 28 discriminator 4
	movl	-30844(%rbp), %eax
.LBE22:
	.loc 1 403 26 is_stmt 1 discriminator 4
	movl	%eax, -30856(%rbp)
	.loc 1 404 17
	movl	-30856(%rbp), %eax
	movslq	%eax, %rdx
	.loc 1 404 31
	movl	-30900(%rbp), %eax
	cltq
	movq	-30768(%rbp,%rax,8), %rcx
	.loc 1 404 17
	movl	-30892(%rbp), %eax
	cltq
	.loc 1 404 24
	addq	%rax, %rcx
	.loc 1 404 17
	leaq	-30736(%rbp), %rax
	movq	%rax, %rsi
	movq	%rcx, %rdi
	call	memcpy@PLT
	.loc 1 405 29
	movl	-30856(%rbp), %eax
	addl	%eax, -30892(%rbp)
.L83:
	.loc 1 400 53
	movq	-30824(%rbp), %rax
	movl	8(%rax), %eax
	.loc 1 400 32
	movl	-30892(%rbp), %edx
	cmpl	%eax, %edx
	jb	.L86
.LBB23:
	.loc 1 408 24
	movq	-30840(%rbp), %rax
	movl	(%rax), %eax
	movl	$0, %ecx
	movl	$7, %edx
	leaq	.LC17(%rip), %rsi
	movl	%eax, %edi
	call	send@PLT
	.loc 1 408 24 is_stmt 0 discriminator 1
	movl	%eax, -30852(%rbp)
	cmpl	$0, -30852(%rbp)
	jg	.L87
	call	__errno_location@PLT
	movl	(%rax), %eax
	movl	%eax, %esi
	leaq	.LC14(%rip), %rax
	movq	%rax, %rdi
	movl	$0, %eax
	call	printf@PLT
	.loc 1 408 24
	jmp	.L69
.L87:
	.loc 1 408 24 discriminator 2
	movl	-30852(%rbp), %eax
.LBE23:
	.loc 1 408 22 is_stmt 1 discriminator 2
	movl	%eax, -30856(%rbp)
	.loc 1 409 13
	movl	-30900(%rbp), %edx
	movl	-30904(%rbp), %eax
	movl	%eax, %esi
	leaq	.LC40(%rip), %rax
	movq	%rax, %rdi
	movl	$0, %eax
	call	printf@PLT
	.loc 1 411 13
	leaq	-30736(%rbp), %rax
	movl	$30720, %edx
	movl	$0, %esi
	movq	%rax, %rdi
	call	memset@PLT
.LBB24:
	.loc 1 412 24
	movq	-30840(%rbp), %rax
	movl	(%rax), %eax
	leaq	-30736(%rbp), %rsi
	movl	$0, %ecx
	movl	$30720, %edx
	movl	%eax, %edi
	call	recv@PLT
	.loc 1 412 24 is_stmt 0 discriminator 1
	movl	%eax, -30848(%rbp)
	cmpl	$0, -30848(%rbp)
	jns	.L88
	call	__errno_location@PLT
	movl	(%rax), %eax
	movl	%eax, %esi
	leaq	.LC15(%rip), %rax
	movq	%rax, %rdi
	movl	$0, %eax
	call	printf@PLT
	.loc 1 412 24
	jmp	.L69
.L88:
	.loc 1 412 24 discriminator 2
	cmpl	$0, -30848(%rbp)
	jne	.L89
	.loc 1 412 24 discriminator 3
	movq	-30840(%rbp), %rax
	movl	(%rax), %eax
	movl	%eax, %edi
	call	close@PLT
	.loc 1 412 24 discriminator 1
	call	__errno_location@PLT
	.loc 1 412 24 discriminator 2
	movl	(%rax), %eax
	movl	%eax, %esi
	leaq	.LC16(%rip), %rax
	movq	%rax, %rdi
	movl	$0, %eax
	call	printf@PLT
	.loc 1 412 24
	jmp	.L69
.L89:
	.loc 1 412 24 discriminator 4
	movl	-30848(%rbp), %eax
.LBE24:
	.loc 1 412 22 is_stmt 1 discriminator 4
	movl	%eax, -30856(%rbp)
	.loc 1 414 26
	movl	-30900(%rbp), %eax
	cltq
	movl	-30800(%rbp,%rax,4), %eax
	.loc 1 414 33
	leal	1(%rax), %edx
	movl	-30900(%rbp), %eax
	cltq
	movl	%edx, -30800(%rbp,%rax,4)
	.loc 1 415 61
	movq	-30824(%rbp), %rax
	movl	8(%rax), %eax
	movl	%eax, %edx
	.loc 1 415 40
	movl	-30900(%rbp), %eax
	cltq
	movl	%edx, -30784(%rbp,%rax,4)
	.loc 1 416 13
	movq	-30824(%rbp), %rax
	movq	%rax, %rdi
	call	free@PLT
	jmp	.L74
.L101:
	.loc 1 364 17
	nop
.L74:
.LBE17:
	.loc 1 359 63 discriminator 2
	addl	$1, -30896(%rbp)
.L72:
	.loc 1 359 27 discriminator 1
	cmpl	$1, -30896(%rbp)
	jle	.L90
.LBE16:
	.loc 1 419 5
	jmp	.L69
.L100:
	.loc 1 355 13
	nop
.L69:
	.loc 1 420 9
	movq	-30840(%rbp), %rax
	movl	(%rax), %eax
	movl	%eax, %edi
	call	close@PLT
	.loc 1 421 17
	movq	-30840(%rbp), %rax
	movq	32(%rax), %rax
	movq	%rax, -30840(%rbp)
	.loc 1 422 10
	addl	$1, -30904(%rbp)
.L67:
.LBE15:
	.loc 1 352 12
	cmpq	$0, -30840(%rbp)
	jne	.L91
.LBB25:
	.loc 1 425 14
	movl	$0, -30888(%rbp)
	.loc 1 425 5
	jmp	.L92
.L96:
	.loc 1 427 19
	movl	-30888(%rbp), %eax
	cltq
	movq	-30768(%rbp,%rax,8), %rax
	.loc 1 427 12
	testq	%rax, %rax
	je	.L93
	.loc 1 427 50 discriminator 1
	movl	-30888(%rbp), %eax
	cltq
	movl	-30784(%rbp,%rax,4), %eax
	.loc 1 427 28 discriminator 1
	testl	%eax, %eax
	jle	.L93
	.loc 1 427 75 discriminator 2
	movl	-30888(%rbp), %eax
	cltq
	movl	-30800(%rbp,%rax,4), %eax
	.loc 1 427 59 discriminator 2
	testl	%eax, %eax
	jg	.L94
.L93:
	.loc 1 429 13
	leaq	.LC19(%rip), %rax
	movq	%rax, %rdi
	movl	$0, %eax
	call	printf@PLT
	.loc 1 430 13
	leaq	.LC41(%rip), %rax
	movq	%rax, %rdi
	movl	$0, %eax
	call	printf@PLT
	.loc 1 431 13
	movq	-30920(%rbp), %rax
	movq	16(%rax), %rax
	movq	%rax, %rsi
	leaq	.LC21(%rip), %rax
	movq	%rax, %rdi
	movl	$0, %eax
	call	printf@PLT
	.loc 1 432 13
	leaq	.LC42(%rip), %rax
	movq	%rax, %rdi
	movl	$0, %eax
	call	printf@PLT
	.loc 1 433 13
	movl	-30888(%rbp), %eax
	addl	$1, %eax
	movl	%eax, %esi
	leaq	.LC43(%rip), %rax
	movq	%rax, %rdi
	movl	$0, %eax
	call	printf@PLT
	.loc 1 434 13
	leaq	.LC24(%rip), %rax
	movq	%rax, %rdi
	movl	$0, %eax
	call	printf@PLT
	jmp	.L66
.L94:
	.loc 1 425 43 discriminator 2
	addl	$1, -30888(%rbp)
.L92:
	.loc 1 425 23 discriminator 1
	cmpl	$3, -30888(%rbp)
	jle	.L96
.LBE25:
	.loc 1 439 24
	movq	-30920(%rbp), %rax
	movq	16(%rax), %rax
	.loc 1 439 16
	leaq	.LC44(%rip), %rdx
	movq	%rdx, %rsi
	movq	%rax, %rdi
	call	fopen@PLT
	movq	%rax, -30832(%rbp)
.LBB26:
	.loc 1 440 14
	movl	$0, -30884(%rbp)
	.loc 1 440 5
	jmp	.L97
.L98:
	.loc 1 442 46
	movl	-30884(%rbp), %eax
	cltq
	movl	-30784(%rbp,%rax,4), %eax
	.loc 1 442 9
	movslq	%eax, %rsi
	.loc 1 442 22
	movl	-30884(%rbp), %eax
	cltq
	movq	-30768(%rbp,%rax,8), %rax
	.loc 1 442 9
	movq	-30832(%rbp), %rdx
	movq	%rdx, %rcx
	movl	$1, %edx
	movq	%rax, %rdi
	call	fwrite@PLT
	.loc 1 443 20
	movl	-30884(%rbp), %eax
	cltq
	movq	-30768(%rbp,%rax,8), %rax
	.loc 1 443 9
	movq	%rax, %rdi
	call	free@PLT
	.loc 1 440 43 discriminator 3
	addl	$1, -30884(%rbp)
.L97:
	.loc 1 440 23 discriminator 1
	cmpl	$3, -30884(%rbp)
	jle	.L98
.LBE26:
	.loc 1 445 5
	movq	-30832(%rbp), %rax
	movq	%rax, %rdi
	call	fclose@PLT
	.loc 1 447 5
	leaq	.LC25(%rip), %rax
	movq	%rax, %rdi
	movl	$0, %eax
	call	printf@PLT
	.loc 1 448 5
	leaq	.LC45(%rip), %rax
	movq	%rax, %rdi
	movl	$0, %eax
	call	printf@PLT
	.loc 1 449 5
	movq	-30920(%rbp), %rax
	movq	16(%rax), %rax
	movq	%rax, %rsi
	leaq	.LC27(%rip), %rax
	movq	%rax, %rdi
	movl	$0, %eax
	call	printf@PLT
	.loc 1 450 5
	leaq	.LC46(%rip), %rax
	movq	%rax, %rdi
	movl	$0, %eax
	call	printf@PLT
	.loc 1 451 5
	leaq	.LC29(%rip), %rax
	movq	%rax, %rdi
	movl	$0, %eax
	call	printf@PLT
.L66:
	.loc 1 452 1
	movq	-8(%rbp), %rax
	subq	%fs:40, %rax
	je	.L99
	call	__stack_chk_fail@PLT
.L99:
	leave
	.cfi_def_cfa 7, 8
	ret
	.cfi_endproc
.LFE328:
	.size	get_file, .-get_file
	.globl	extract_original_filename
	.type	extract_original_filename, @function
extract_original_filename:
.LFB329:
	.loc 1 457 1
	.cfi_startproc
	endbr64
	pushq	%rbp
	.cfi_def_cfa_offset 16
	.cfi_offset 6, -16
	movq	%rsp, %rbp
	.cfi_def_cfa_register 6
	subq	$48, %rsp
	movq	%rdi, -40(%rbp)
	.loc 1 459 36
	movq	-40(%rbp), %rax
	movl	$95, %esi
	movq	%rax, %rdi
	call	strchr@PLT
	movq	%rax, -32(%rbp)
	.loc 1 460 8
	cmpq	$0, -32(%rbp)
	jne	.L103
	.loc 1 462 16
	movl	$0, %eax
	jmp	.L104
.L103:
	.loc 1 466 21
	addq	$1, -32(%rbp)
	.loc 1 469 35
	movq	-32(%rbp), %rax
	movl	$95, %esi
	movq	%rax, %rdi
	call	strrchr@PLT
	movq	%rax, -24(%rbp)
	.loc 1 470 8
	cmpq	$0, -24(%rbp)
	jne	.L105
	.loc 1 472 16
	movl	$0, %eax
	jmp	.L104
.L105:
	.loc 1 476 43
	movq	-24(%rbp), %rax
	subq	-32(%rbp), %rax
	.loc 1 476 12
	movq	%rax, -16(%rbp)
	.loc 1 479 31
	movq	-16(%rbp), %rax
	addq	$1, %rax
	movq	%rax, %rdi
	call	malloc@PLT
	movq	%rax, -8(%rbp)
	.loc 1 480 8
	cmpq	$0, -8(%rbp)
	jne	.L106
	.loc 1 482 16
	movl	$0, %eax
	jmp	.L104
.L106:
	.loc 1 486 5
	movq	-16(%rbp), %rdx
	movq	-32(%rbp), %rcx
	movq	-8(%rbp), %rax
	movq	%rcx, %rsi
	movq	%rax, %rdi
	call	strncpy@PLT
	.loc 1 487 22
	movq	-8(%rbp), %rdx
	movq	-16(%rbp), %rax
	addq	%rdx, %rax
	.loc 1 487 37
	movb	$0, (%rax)
	.loc 1 489 12
	movq	-8(%rbp), %rax
.L104:
	.loc 1 490 1
	leave
	.cfi_def_cfa 7, 8
	ret
	.cfi_endproc
.LFE329:
	.size	extract_original_filename, .-extract_original_filename
	.globl	parse_server_filename
	.type	parse_server_filename, @function
parse_server_filename:
.LFB330:
	.loc 1 494 1
	.cfi_startproc
	endbr64
	pushq	%rbp
	.cfi_def_cfa_offset 16
	.cfi_offset 6, -16
	movq	%rsp, %rbp
	.cfi_def_cfa_register 6
	subq	$64, %rsp
	movq	%rdi, -40(%rbp)
	movq	%rsi, -48(%rbp)
	movq	%rdx, -56(%rbp)
	.loc 1 496 33
	movq	-40(%rbp), %rax
	movl	$47, %esi
	movq	%rax, %rdi
	call	strrchr@PLT
	movq	%rax, -24(%rbp)
	.loc 1 497 8
	cmpq	$0, -24(%rbp)
	je	.L108
	.loc 1 499 22
	addq	$1, -24(%rbp)
	jmp	.L109
.L108:
	.loc 1 503 23
	movq	-40(%rbp), %rax
	movq	%rax, -24(%rbp)
.L109:
	.loc 1 507 35
	movq	-24(%rbp), %rax
	movl	$95, %esi
	movq	%rax, %rdi
	call	strrchr@PLT
	movq	%rax, -16(%rbp)
	.loc 1 508 8
	cmpq	$0, -16(%rbp)
	jne	.L110
	.loc 1 510 16
	movl	$-1, %eax
	jmp	.L111
.L110:
	.loc 1 514 17
	movq	-16(%rbp), %rax
	addq	$1, %rax
	movq	%rax, %rdi
	call	atoi@PLT
	.loc 1 514 15 discriminator 1
	movq	-56(%rbp), %rdx
	movl	%eax, (%rdx)
	.loc 1 517 43
	movq	-16(%rbp), %rax
	subq	-24(%rbp), %rax
	.loc 1 517 12
	movq	%rax, -8(%rbp)
	.loc 1 520 26
	movq	-8(%rbp), %rax
	addq	$1, %rax
	movq	%rax, %rdi
	call	malloc@PLT
	movq	%rax, %rdx
	.loc 1 520 24 discriminator 1
	movq	-48(%rbp), %rax
	movq	%rdx, (%rax)
	.loc 1 521 9
	movq	-48(%rbp), %rax
	movq	(%rax), %rax
	.loc 1 521 8
	testq	%rax, %rax
	jne	.L112
	.loc 1 523 16
	movl	$-1, %eax
	jmp	.L111
.L112:
	.loc 1 527 5
	movq	-48(%rbp), %rax
	movq	(%rax), %rax
	movq	-8(%rbp), %rdx
	movq	-24(%rbp), %rcx
	movq	%rcx, %rsi
	movq	%rax, %rdi
	call	strncpy@PLT
	.loc 1 528 6
	movq	-48(%rbp), %rax
	movq	(%rax), %rdx
	.loc 1 528 25
	movq	-8(%rbp), %rax
	addq	%rdx, %rax
	.loc 1 528 40
	movb	$0, (%rax)
	.loc 1 530 12
	movl	$0, %eax
.L111:
	.loc 1 531 1
	leave
	.cfi_def_cfa 7, 8
	ret
	.cfi_endproc
.LFE330:
	.size	parse_server_filename, .-parse_server_filename
	.section	.rodata
.LC47:
	.string	"nack\t\n0\t\n"
	.string	""
	.align 8
.LC48:
	.string	"Extracted: Original file = %s, Chunk ID = %d\n"
.LC49:
	.string	"Failed to parse chunk id"
.LC50:
	.string	"Failed to parse filename"
.LC51:
	.string	"INCOMPLETE PAIR"
	.text
	.globl	list_file
	.type	list_file, @function
list_file:
.LFB331:
	.loc 1 534 1
	.cfi_startproc
	endbr64
	pushq	%rbp
	.cfi_def_cfa_offset 16
	.cfi_offset 6, -16
	movq	%rsp, %rbp
	.cfi_def_cfa_register 6
	leaq	-28672(%rsp), %r11
.LPSRL2:
	subq	$4096, %rsp
	orq	$0, (%rsp)
	cmpq	%r11, %rsp
	jne	.LPSRL2
	subq	$2144, %rsp
	movq	%rdi, -30808(%rbp)
	.loc 1 534 1
	movq	%fs:40, %rax
	movq	%rax, -8(%rbp)
	xorl	%eax, %eax
	.loc 1 536 9
	movl	$0, -30796(%rbp)
	.loc 1 536 16
	movl	$0, -30788(%rbp)
	.loc 1 537 22
	movq	-30808(%rbp), %rax
	movq	32(%rax), %rax
	movq	%rax, -30776(%rbp)
	.loc 1 538 36
	movq	-30808(%rbp), %rax
	movl	56(%rax), %eax
	cltq
	.loc 1 538 27
	salq	$2, %rax
	movq	%rax, %rdi
	call	malloc@PLT
	movq	%rax, %rdx
	.loc 1 538 25 discriminator 1
	movq	-30808(%rbp), %rax
	movq	%rdx, 48(%rax)
	.loc 1 542 11
	jmp	.L114
.L131:
.LBB27:
	.loc 1 545 13
	movl	-30796(%rbp), %edx
	movq	-30776(%rbp), %rcx
	movq	-30808(%rbp), %rax
	movq	%rcx, %rsi
	movq	%rax, %rdi
	call	connect_server
	.loc 1 545 12 discriminator 1
	testl	%eax, %eax
	js	.L133
	.loc 1 548 26
	movb	$3, -30764(%rbp)
	movb	$0, -30763(%rbp)
	movl	$0, -30760(%rbp)
	movl	$0, -30756(%rbp)
	.loc 1 553 20
	movq	-30776(%rbp), %rax
	movl	(%rax), %eax
	leaq	-30764(%rbp), %rsi
	movl	$0, %ecx
	movl	$12, %edx
	movl	%eax, %edi
	call	send@PLT
	.loc 1 553 18 discriminator 1
	movl	%eax, -30788(%rbp)
.L127:
.LBB28:
	.loc 1 557 13
	leaq	-30764(%rbp), %rax
	movl	$12, %edx
	movl	$0, %esi
	movq	%rax, %rdi
	call	memset@PLT
	.loc 1 558 24
	movq	-30776(%rbp), %rax
	movl	(%rax), %eax
	leaq	-30764(%rbp), %rsi
	movl	$0, %ecx
	movl	$12, %edx
	movl	%eax, %edi
	call	recv@PLT
	.loc 1 558 22 discriminator 1
	movl	%eax, -30788(%rbp)
	.loc 1 559 16
	cmpl	$0, -30788(%rbp)
	jle	.L134
	.loc 1 563 13
	movl	-30788(%rbp), %eax
	movslq	%eax, %rdx
	leaq	-30764(%rbp), %rcx
	leaq	-30736(%rbp), %rax
	movq	%rcx, %rsi
	movq	%rax, %rdi
	call	memcpy@PLT
	.loc 1 564 17
	leaq	-30736(%rbp), %rax
	movl	$7, %edx
	leaq	.LC17(%rip), %rcx
	movq	%rcx, %rsi
	movq	%rax, %rdi
	call	strncmp@PLT
	.loc 1 564 16 discriminator 1
	testl	%eax, %eax
	je	.L135
	.loc 1 566 17
	leaq	-30736(%rbp), %rax
	movl	$8, %edx
	leaq	.LC47(%rip), %rcx
	movq	%rcx, %rsi
	movq	%rax, %rdi
	call	strncmp@PLT
	.loc 1 566 16 discriminator 1
	testl	%eax, %eax
	je	.L136
	.loc 1 569 13
	leaq	-30736(%rbp), %rax
	movl	$30720, %edx
	movl	$0, %esi
	movq	%rax, %rdi
	call	memset@PLT
	.loc 1 570 84
	movl	-30760(%rbp), %eax
	.loc 1 570 24
	movl	%eax, %edx
	movq	-30776(%rbp), %rax
	movl	(%rax), %eax
	leaq	-30736(%rbp), %rsi
	movl	$0, %ecx
	movl	%eax, %edi
	call	recv@PLT
	.loc 1 570 22 discriminator 1
	movl	%eax, -30788(%rbp)
	.loc 1 571 16
	cmpl	$0, -30788(%rbp)
	jle	.L137
	.loc 1 573 17
	leaq	-30736(%rbp), %rax
	movl	$7, %edx
	leaq	.LC17(%rip), %rcx
	movq	%rcx, %rsi
	movq	%rax, %rdi
	call	strncmp@PLT
	.loc 1 573 16 discriminator 1
	testl	%eax, %eax
	je	.L138
	.loc 1 575 17
	leaq	-30736(%rbp), %rax
	movl	$8, %edx
	leaq	.LC47(%rip), %rcx
	movq	%rcx, %rsi
	movq	%rax, %rdi
	call	strncmp@PLT
	.loc 1 575 16 discriminator 1
	testl	%eax, %eax
	je	.L139
	.loc 1 577 19
	movq	$0, -30784(%rbp)
	.loc 1 578 17
	movl	$-1, -30800(%rbp)
	.loc 1 579 17
	leaq	-30800(%rbp), %rdx
	leaq	-30784(%rbp), %rcx
	leaq	-30736(%rbp), %rax
	movq	%rcx, %rsi
	movq	%rax, %rdi
	call	parse_server_filename
	.loc 1 579 16 discriminator 1
	testl	%eax, %eax
	jne	.L124
	.loc 1 581 17
	movl	-30800(%rbp), %edx
	movq	-30784(%rbp), %rax
	movq	%rax, %rsi
	leaq	.LC48(%rip), %rax
	movq	%rax, %rdi
	movl	$0, %eax
	call	printf@PLT
	.loc 1 583 17
	movq	-30784(%rbp), %rax
	movq	%rax, %rdi
	call	free@PLT
	.loc 1 584 30
	movl	-30800(%rbp), %eax
	.loc 1 584 20
	cmpl	$3, %eax
	jle	.L125
	.loc 1 586 21
	leaq	.LC49(%rip), %rax
	movq	%rax, %rdi
	call	puts@PLT
	.loc 1 587 21
	jmp	.L118
.L125:
	.loc 1 589 30
	movl	-30800(%rbp), %eax
	movslq	%eax, %rdx
	movl	-30752(%rbp,%rdx,4), %edx
	.loc 1 589 40
	addl	$1, %edx
	cltq
	movl	%edx, -30752(%rbp,%rax,4)
	jmp	.L127
.L124:
	.loc 1 593 17
	leaq	.LC50(%rip), %rax
	movq	%rax, %rdi
	call	puts@PLT
.LBE28:
	.loc 1 556 9
	jmp	.L127
.L134:
.LBB29:
	.loc 1 560 17
	nop
	jmp	.L118
.L135:
	.loc 1 565 17
	nop
	jmp	.L118
.L136:
	.loc 1 567 17
	nop
	jmp	.L118
.L137:
	.loc 1 572 17
	nop
	jmp	.L118
.L138:
	.loc 1 574 17
	nop
	jmp	.L118
.L139:
	.loc 1 576 17
	nop
.L118:
.LBE29:
.LBB30:
	.loc 1 597 18
	movl	$0, -30792(%rbp)
	.loc 1 597 9
	jmp	.L128
.L130:
	.loc 1 599 30
	movl	-30792(%rbp), %eax
	cltq
	movl	-30752(%rbp,%rax,4), %eax
	.loc 1 599 16
	testl	%eax, %eax
	jg	.L129
	.loc 1 601 17
	leaq	.LC51(%rip), %rax
	movq	%rax, %rdi
	call	puts@PLT
.L129:
	.loc 1 597 47 discriminator 2
	addl	$1, -30792(%rbp)
.L128:
	.loc 1 597 27 discriminator 1
	cmpl	$3, -30792(%rbp)
	jle	.L130
.LBE30:
	.loc 1 605 5
	jmp	.L116
.L133:
	.loc 1 546 13
	nop
.L116:
	.loc 1 606 9
	movq	-30776(%rbp), %rax
	movl	(%rax), %eax
	movl	%eax, %edi
	call	close@PLT
	.loc 1 607 17
	movq	-30776(%rbp), %rax
	movq	32(%rax), %rax
	movq	%rax, -30776(%rbp)
	.loc 1 608 10
	addl	$1, -30796(%rbp)
.L114:
.LBE27:
	.loc 1 542 12
	cmpq	$0, -30776(%rbp)
	jne	.L131
	.loc 1 610 1
	nop
	movq	-8(%rbp), %rax
	subq	%fs:40, %rax
	je	.L132
	call	__stack_chk_fail@PLT
.L132:
	leave
	.cfi_def_cfa 7, 8
	ret
	.cfi_endproc
.LFE331:
	.size	list_file, .-list_file
	.section	.rodata
	.align 8
.LC52:
	.string	"\033[32m    FILE DELETE SUCCESSFUL\n\033[0m"
	.align 8
.LC53:
	.string	"\033[32m    All chunks removed from servers\n\033[0m"
	.align 8
.LC54:
	.string	"Filename does not exists or file permission not matching !"
	.text
	.globl	delete_file
	.type	delete_file, @function
delete_file:
.LFB332:
	.loc 1 613 1
	.cfi_startproc
	endbr64
	pushq	%rbp
	.cfi_def_cfa_offset 16
	.cfi_offset 6, -16
	movq	%rsp, %rbp
	.cfi_def_cfa_register 6
	leaq	-28672(%rsp), %r11
.LPSRL3:
	subq	$4096, %rsp
	orq	$0, (%rsp)
	cmpq	%r11, %rsp
	jne	.LPSRL3
	subq	$2144, %rsp
	movq	%rdi, -30808(%rbp)
	.loc 1 613 1
	movq	%fs:40, %rax
	movq	%rax, -8(%rbp)
	xorl	%eax, %eax
	.loc 1 615 9
	movl	$0, -30792(%rbp)
	.loc 1 615 16
	movl	$0, -30780(%rbp)
	.loc 1 616 22
	movq	-30808(%rbp), %rax
	movq	32(%rax), %rax
	movq	%rax, -30760(%rbp)
	.loc 1 617 36
	movq	-30808(%rbp), %rax
	movl	56(%rax), %eax
	cltq
	.loc 1 617 27
	salq	$2, %rax
	movq	%rax, %rdi
	call	malloc@PLT
	movq	%rax, %rdx
	.loc 1 617 25 discriminator 1
	movq	-30808(%rbp), %rax
	movq	%rdx, 48(%rax)
	.loc 1 620 11
	jmp	.L141
.L155:
.LBB31:
	.loc 1 622 13
	movl	-30792(%rbp), %edx
	movq	-30760(%rbp), %rcx
	movq	-30808(%rbp), %rax
	movq	%rcx, %rsi
	movq	%rax, %rdi
	call	connect_server
	.loc 1 622 12 discriminator 1
	testl	%eax, %eax
	js	.L157
	.loc 1 625 51
	movq	-30808(%rbp), %rax
	movq	16(%rax), %rax
	.loc 1 625 42
	movq	%rax, %rdi
	call	strlen@PLT
	.loc 1 625 20 discriminator 1
	movl	%eax, %edx
	movq	-30808(%rbp), %rax
	movq	16(%rax), %rax
	movl	%edx, %esi
	movq	%rax, %rdi
	call	str2md5
	.loc 1 625 68 discriminator 2
	movq	-30808(%rbp), %rdx
	movl	56(%rdx), %edx
	movl	%edx, %ecx
	.loc 1 625 64 discriminator 2
	movl	$0, %edx
	divl	%ecx
	movl	%edx, %eax
	.loc 1 625 13 discriminator 2
	movl	%eax, -30776(%rbp)
	.loc 1 626 26
	movl	-30792(%rbp), %eax
	subl	-30776(%rbp), %eax
	.loc 1 626 63
	testl	%eax, %eax
	jns	.L144
	.loc 1 626 63 is_stmt 0 discriminator 1
	movq	-30808(%rbp), %rax
	movl	56(%rax), %eax
	jmp	.L145
.L144:
	.loc 1 626 63 discriminator 2
	movl	-30792(%rbp), %eax
	subl	-30776(%rbp), %eax
.L145:
	.loc 1 626 13 is_stmt 1 discriminator 4
	movl	%eax, -30788(%rbp)
.LBB32:
	.loc 1 627 18
	movl	$0, -30784(%rbp)
	.loc 1 627 9
	jmp	.L146
.L154:
.LBB33:
	.loc 1 629 28
	movl	-30788(%rbp), %edx
	movl	-30784(%rbp), %eax
	addl	%eax, %edx
	.loc 1 629 37
	movq	-30808(%rbp), %rax
	movl	56(%rax), %ecx
	.loc 1 629 19
	movl	%edx, %eax
	cltd
	idivl	%ecx
	movl	%edx, -30788(%rbp)
	.loc 1 631 30
	movb	$2, -30748(%rbp)
	movl	-30788(%rbp), %eax
	movb	%al, -30747(%rbp)
	.loc 1 634 45
	movq	-30808(%rbp), %rax
	movq	16(%rax), %rax
	.loc 1 634 36
	movq	%rax, %rdi
	call	strlen@PLT
	.loc 1 631 30
	movl	%eax, -30744(%rbp)
	movl	$0, -30740(%rbp)
.LBB34:
	.loc 1 636 24
	movq	-30760(%rbp), %rax
	movl	(%rax), %eax
	leaq	-30748(%rbp), %rsi
	movl	$0, %ecx
	movl	$12, %edx
	movl	%eax, %edi
	call	send@PLT
	.loc 1 636 24 is_stmt 0 discriminator 1
	movl	%eax, -30772(%rbp)
	cmpl	$0, -30772(%rbp)
	jg	.L147
	call	__errno_location@PLT
	movl	(%rax), %eax
	movl	%eax, %esi
	leaq	.LC14(%rip), %rax
	movq	%rax, %rdi
	movl	$0, %eax
	call	printf@PLT
	.loc 1 636 24
	jmp	.L143
.L147:
	.loc 1 636 24 discriminator 2
	movl	-30772(%rbp), %eax
.LBE34:
	.loc 1 636 22 is_stmt 1 discriminator 2
	movl	%eax, -30780(%rbp)
.LBB35:
	.loc 1 637 24
	movl	-30744(%rbp), %eax
	movl	%eax, %edx
	movq	-30808(%rbp), %rax
	movq	16(%rax), %rsi
	movq	-30760(%rbp), %rax
	movl	(%rax), %eax
	movl	$0, %ecx
	movl	%eax, %edi
	call	send@PLT
	.loc 1 637 24 is_stmt 0 discriminator 1
	movl	%eax, -30768(%rbp)
	cmpl	$0, -30768(%rbp)
	jg	.L149
	call	__errno_location@PLT
	movl	(%rax), %eax
	movl	%eax, %esi
	leaq	.LC14(%rip), %rax
	movq	%rax, %rdi
	movl	$0, %eax
	call	printf@PLT
	.loc 1 637 24
	jmp	.L143
.L149:
	.loc 1 637 24 discriminator 2
	movl	-30768(%rbp), %eax
.LBE35:
	.loc 1 637 22 is_stmt 1 discriminator 2
	movl	%eax, -30780(%rbp)
	.loc 1 638 13
	leaq	-30736(%rbp), %rax
	movl	$30720, %edx
	movl	$0, %esi
	movq	%rax, %rdi
	call	memset@PLT
.LBB36:
	.loc 1 639 24
	movq	-30760(%rbp), %rax
	movl	(%rax), %eax
	leaq	-30736(%rbp), %rsi
	movl	$0, %ecx
	movl	$30720, %edx
	movl	%eax, %edi
	call	recv@PLT
	.loc 1 639 24 is_stmt 0 discriminator 1
	movl	%eax, -30764(%rbp)
	cmpl	$0, -30764(%rbp)
	jns	.L150
	call	__errno_location@PLT
	movl	(%rax), %eax
	movl	%eax, %esi
	leaq	.LC15(%rip), %rax
	movq	%rax, %rdi
	movl	$0, %eax
	call	printf@PLT
	.loc 1 639 24
	jmp	.L143
.L150:
	.loc 1 639 24 discriminator 2
	cmpl	$0, -30764(%rbp)
	jne	.L151
	.loc 1 639 24 discriminator 3
	movq	-30760(%rbp), %rax
	movl	(%rax), %eax
	movl	%eax, %edi
	call	close@PLT
	.loc 1 639 24 discriminator 1
	call	__errno_location@PLT
	.loc 1 639 24 discriminator 2
	movl	(%rax), %eax
	movl	%eax, %esi
	leaq	.LC16(%rip), %rax
	movq	%rax, %rdi
	movl	$0, %eax
	call	printf@PLT
	.loc 1 639 24
	jmp	.L143
.L151:
	.loc 1 639 24 discriminator 4
	movl	-30764(%rbp), %eax
.LBE36:
	.loc 1 639 22 is_stmt 1 discriminator 4
	movl	%eax, -30780(%rbp)
	.loc 1 640 17
	leaq	-30736(%rbp), %rax
	movl	$7, %edx
	leaq	.LC17(%rip), %rcx
	movq	%rcx, %rsi
	movq	%rax, %rdi
	call	strncmp@PLT
	.loc 1 640 16 discriminator 1
	testl	%eax, %eax
	jne	.L152
	.loc 1 642 17
	leaq	.LC25(%rip), %rax
	movq	%rax, %rdi
	movl	$0, %eax
	call	printf@PLT
	.loc 1 643 17
	leaq	.LC52(%rip), %rax
	movq	%rax, %rdi
	movl	$0, %eax
	call	printf@PLT
	.loc 1 644 17
	movq	-30808(%rbp), %rax
	movq	16(%rax), %rax
	movq	%rax, %rsi
	leaq	.LC27(%rip), %rax
	movq	%rax, %rdi
	movl	$0, %eax
	call	printf@PLT
	.loc 1 645 17
	leaq	.LC53(%rip), %rax
	movq	%rax, %rdi
	movl	$0, %eax
	call	printf@PLT
	.loc 1 646 17
	leaq	.LC29(%rip), %rax
	movq	%rax, %rdi
	movl	$0, %eax
	call	printf@PLT
	jmp	.L143
.L152:
	.loc 1 649 17
	leaq	-30736(%rbp), %rax
	movl	$8, %edx
	leaq	.LC47(%rip), %rcx
	movq	%rcx, %rsi
	movq	%rax, %rdi
	call	strncmp@PLT
	.loc 1 649 16 discriminator 1
	testl	%eax, %eax
	jne	.L153
	.loc 1 651 17
	leaq	.LC54(%rip), %rax
	movq	%rax, %rdi
	call	puts@PLT
.L153:
.LBE33:
	.loc 1 627 63 discriminator 2
	addl	$1, -30784(%rbp)
.L146:
	.loc 1 627 27 discriminator 1
	cmpl	$1, -30784(%rbp)
	jle	.L154
.LBE32:
	.loc 1 656 5
	jmp	.L143
.L157:
	.loc 1 623 13
	nop
.L143:
	.loc 1 657 9
	movq	-30760(%rbp), %rax
	movl	(%rax), %eax
	movl	%eax, %edi
	call	close@PLT
	.loc 1 658 17
	movq	-30760(%rbp), %rax
	movq	32(%rax), %rax
	movq	%rax, -30760(%rbp)
	.loc 1 659 10
	addl	$1, -30792(%rbp)
.L141:
.LBE31:
	.loc 1 620 12
	cmpq	$0, -30760(%rbp)
	jne	.L155
	.loc 1 661 1
	nop
	movq	-8(%rbp), %rax
	subq	%fs:40, %rax
	je	.L156
	call	__stack_chk_fail@PLT
.L156:
	leave
	.cfi_def_cfa 7, 8
	ret
	.cfi_endproc
.LFE332:
	.size	delete_file, .-delete_file
	.section	.rodata
	.align 8
.LC55:
	.string	"\033[36m\n=========================================\n\033[0m"
.LC56:
	.string	"\033[36m    SERVER STATUS\n\033[0m"
	.align 8
.LC57:
	.string	"\033[36m=========================================\n\n\033[0m"
	.align 8
.LC58:
	.string	"\033[32m[+] Server %d is ONLINE\n\033[0m"
.LC59:
	.string	"\033[32m    Address: %s:%s\n\n\033[0m"
	.align 8
.LC60:
	.string	"\033[31m[-] Server %d is OFFLINE\n\033[0m"
.LC61:
	.string	"\033[31m    Address: %s:%s\n\n\033[0m"
	.align 8
.LC62:
	.string	"\033[36m    %d/%d servers available\n\033[0m"
	.text
	.globl	server_info
	.type	server_info, @function
server_info:
.LFB333:
	.loc 1 664 1
	.cfi_startproc
	endbr64
	pushq	%rbp
	.cfi_def_cfa_offset 16
	.cfi_offset 6, -16
	movq	%rsp, %rbp
	.cfi_def_cfa_register 6
	subq	$32, %rsp
	movq	%rdi, -24(%rbp)
	.loc 1 666 9
	movl	$0, -12(%rbp)
	.loc 1 667 22
	movq	-24(%rbp), %rax
	movq	32(%rax), %rax
	movq	%rax, -8(%rbp)
	.loc 1 668 36
	movq	-24(%rbp), %rax
	movl	56(%rax), %eax
	cltq
	.loc 1 668 27
	salq	$2, %rax
	movq	%rax, %rdi
	call	malloc@PLT
	movq	%rax, %rdx
	.loc 1 668 25 discriminator 1
	movq	-24(%rbp), %rax
	movq	%rdx, 48(%rax)
	.loc 1 669 11
	jmp	.L159
.L162:
	.loc 1 671 13
	movl	-12(%rbp), %edx
	movq	-8(%rbp), %rcx
	movq	-24(%rbp), %rax
	movq	%rcx, %rsi
	movq	%rax, %rdi
	call	connect_server
	.loc 1 671 12 discriminator 1
	testl	%eax, %eax
	js	.L163
	.loc 1 673 9
	leaq	.LC55(%rip), %rax
	movq	%rax, %rdi
	movl	$0, %eax
	call	printf@PLT
	.loc 1 674 9
	leaq	.LC56(%rip), %rax
	movq	%rax, %rdi
	movl	$0, %eax
	call	printf@PLT
	.loc 1 675 9
	leaq	.LC57(%rip), %rax
	movq	%rax, %rdi
	movl	$0, %eax
	call	printf@PLT
	.loc 1 678 9
	movl	-12(%rbp), %eax
	addl	$1, %eax
	movl	%eax, %esi
	leaq	.LC58(%rip), %rax
	movq	%rax, %rdi
	movl	$0, %eax
	call	printf@PLT
	.loc 1 679 9
	movq	-8(%rbp), %rax
	movq	8(%rax), %rdx
	movq	-8(%rbp), %rax
	movq	16(%rax), %rax
	movq	%rax, %rsi
	leaq	.LC59(%rip), %rax
	movq	%rax, %rdi
	movl	$0, %eax
	call	printf@PLT
	.loc 1 682 9
	movl	-12(%rbp), %eax
	addl	$1, %eax
	movl	%eax, %esi
	leaq	.LC60(%rip), %rax
	movq	%rax, %rdi
	movl	$0, %eax
	call	printf@PLT
	.loc 1 683 9
	movq	-8(%rbp), %rax
	movq	8(%rax), %rdx
	movq	-8(%rbp), %rax
	movq	16(%rax), %rax
	movq	%rax, %rsi
	leaq	.LC61(%rip), %rax
	movq	%rax, %rdi
	movl	$0, %eax
	call	printf@PLT
	.loc 1 686 9
	leaq	.LC55(%rip), %rax
	movq	%rax, %rdi
	movl	$0, %eax
	call	printf@PLT
	.loc 1 687 9
	movq	-24(%rbp), %rax
	movl	56(%rax), %edx
	movq	-24(%rbp), %rax
	movl	60(%rax), %eax
	movl	%eax, %esi
	leaq	.LC62(%rip), %rax
	movq	%rax, %rdi
	movl	$0, %eax
	call	printf@PLT
	.loc 1 688 9
	leaq	.LC57(%rip), %rax
	movq	%rax, %rdi
	movl	$0, %eax
	call	printf@PLT
	jmp	.L161
.L163:
	.loc 1 671 49
	nop
.L161:
	.loc 1 691 9
	movq	-8(%rbp), %rax
	movl	(%rax), %eax
	movl	%eax, %edi
	call	close@PLT
	.loc 1 692 17
	movq	-8(%rbp), %rax
	movq	32(%rax), %rax
	movq	%rax, -8(%rbp)
	.loc 1 693 10
	addl	$1, -12(%rbp)
.L159:
	.loc 1 669 12
	cmpq	$0, -8(%rbp)
	jne	.L162
	.loc 1 695 1
	nop
	nop
	leave
	.cfi_def_cfa 7, 8
	ret
	.cfi_endproc
.LFE333:
	.size	server_info, .-server_info
	.section	.rodata
.LC63:
	.string	"DELETE"
.LC64:
	.string	"UNKNOWN"
.LC65:
	.string	"LIST"
.LC66:
	.string	"GET"
.LC67:
	.string	"PUT"
	.align 8
.LC68:
	.string	"\033[36m    STARTING %s OPERATION\n\033[0m"
	.text
	.globl	handle_req
	.type	handle_req, @function
handle_req:
.LFB334:
	.loc 1 714 1
	.cfi_startproc
	endbr64
	pushq	%rbp
	.cfi_def_cfa_offset 16
	.cfi_offset 6, -16
	movq	%rsp, %rbp
	.cfi_def_cfa_register 6
	subq	$16, %rsp
	movq	%rdi, -8(%rbp)
	.loc 1 716 5
	leaq	.LC55(%rip), %rax
	movq	%rax, %rdi
	movl	$0, %eax
	call	printf@PLT
	.loc 1 718 14
	movq	-8(%rbp), %rax
	movl	24(%rax), %eax
	.loc 1 717 5
	cmpl	$1, %eax
	je	.L165
	.loc 1 718 47
	movq	-8(%rbp), %rax
	movl	24(%rax), %eax
	.loc 1 719 41
	testl	%eax, %eax
	je	.L166
	.loc 1 719 45 discriminator 1
	movq	-8(%rbp), %rax
	movl	24(%rax), %eax
	.loc 1 720 41
	cmpl	$3, %eax
	je	.L167
	.loc 1 720 45 discriminator 1
	movq	-8(%rbp), %rax
	movl	24(%rax), %eax
	.loc 1 721 69
	cmpl	$2, %eax
	jne	.L168
	.loc 1 721 69 is_stmt 0 discriminator 1
	leaq	.LC63(%rip), %rax
	jmp	.L172
.L168:
	.loc 1 721 69 discriminator 2
	leaq	.LC64(%rip), %rax
	jmp	.L172
.L167:
	.loc 1 720 41 is_stmt 1 discriminator 2
	leaq	.LC65(%rip), %rax
	jmp	.L172
.L166:
	.loc 1 719 41 discriminator 2
	leaq	.LC66(%rip), %rax
	jmp	.L172
.L165:
	.loc 1 717 5 discriminator 1
	leaq	.LC67(%rip), %rax
.L172:
	.loc 1 717 5 is_stmt 0 discriminator 3
	movq	%rax, %rsi
	leaq	.LC68(%rip), %rax
	movq	%rax, %rdi
	movl	$0, %eax
	call	printf@PLT
	.loc 1 722 5 is_stmt 1
	leaq	.LC57(%rip), %rax
	movq	%rax, %rdi
	movl	$0, %eax
	call	printf@PLT
	.loc 1 725 15
	movq	-8(%rbp), %rax
	movl	24(%rax), %eax
	.loc 1 725 5
	cmpl	$5, %eax
	ja	.L183
	movl	%eax, %eax
	leaq	0(,%rax,4), %rdx
	leaq	.L175(%rip), %rax
	movl	(%rdx,%rax), %eax
	cltq
	leaq	.L175(%rip), %rdx
	addq	%rdx, %rax
	notrack jmp	*%rax
	.section	.rodata
	.align 4
	.align 4
.L175:
	.long	.L180-.L175
	.long	.L179-.L175
	.long	.L178-.L175
	.long	.L177-.L175
	.long	.L176-.L175
	.long	.L174-.L175
	.text
.L177:
	.loc 1 728 9
	movq	-8(%rbp), %rax
	movq	%rax, %rdi
	call	list_file
	.loc 1 729 9
	jmp	.L181
.L180:
	.loc 1 731 9
	movq	-8(%rbp), %rax
	movq	%rax, %rdi
	call	get_file
	.loc 1 732 9
	jmp	.L181
.L179:
	.loc 1 734 9
	movq	-8(%rbp), %rax
	movq	%rax, %rdi
	call	put_file
	.loc 1 735 9
	jmp	.L181
.L178:
	.loc 1 737 9
	movq	-8(%rbp), %rax
	movq	%rax, %rdi
	call	delete_file
	.loc 1 738 9
	jmp	.L181
.L176:
	.loc 1 740 9
	movl	$0, %edi
	call	exit@PLT
.L174:
	.loc 1 743 9
	movq	-8(%rbp), %rax
	movq	%rax, %rdi
	call	server_info
	.loc 1 744 9
	jmp	.L181
.L183:
	.loc 1 746 9
	nop
.L181:
	.loc 1 749 12
	movl	$0, %eax
	.loc 1 750 1
	leave
	.cfi_def_cfa 7, 8
	ret
	.cfi_endproc
.LFE334:
	.size	handle_req, .-handle_req
.Letext0:
	.file 2 "/usr/lib/gcc/x86_64-linux-gnu/14/include/stddef.h"
	.file 3 "/usr/include/x86_64-linux-gnu/bits/types.h"
	.file 4 "/usr/include/x86_64-linux-gnu/bits/types/struct_FILE.h"
	.file 5 "/usr/include/x86_64-linux-gnu/bits/types/FILE.h"
	.file 6 "/usr/include/stdio.h"
	.file 7 "/usr/include/x86_64-linux-gnu/bits/thread-shared-types.h"
	.file 8 "/usr/include/x86_64-linux-gnu/bits/struct_mutex.h"
	.file 9 "/usr/include/x86_64-linux-gnu/bits/pthreadtypes.h"
	.file 10 "/usr/include/x86_64-linux-gnu/bits/stdint-uintn.h"
	.file 11 "/usr/include/unistd.h"
	.file 12 "/usr/include/x86_64-linux-gnu/bits/sockaddr.h"
	.file 13 "/usr/include/x86_64-linux-gnu/bits/socket.h"
	.file 14 "/usr/include/netinet/in.h"
	.file 15 "/usr/include/x86_64-linux-gnu/sys/socket.h"
	.file 16 "/usr/include/netdb.h"
	.file 17 "/usr/include/openssl/types.h"
	.file 18 "./common.h"
	.file 19 "/usr/include/string.h"
	.file 20 "/usr/include/stdlib.h"
	.file 21 "/usr/include/arpa/inet.h"
	.file 22 "/usr/include/x86_64-linux-gnu/bits/unistd_ext.h"
	.file 23 "/usr/include/errno.h"
	.file 24 "/usr/include/openssl/evp.h"
	.file 25 "/usr/include/x86_64-linux-gnu/bits/socket_type.h"
	.section	.note.GNU-stack,"",@progbits
	.section	.note.gnu.property,"a"
	.align 8
	.long	1f - 0f
	.long	4f - 1f
	.long	5
0:
	.string	"GNU"
1:
	.align 8
	.long	0xc0000002
	.long	3f - 2f
2:
	.long	0x3
3:
	.align 8
4:
