	.file	"queue.c"
	.text
.Ltext0:
	.file 0 "/home/parth/Work/All_data/university/Network System/Assignments/PA4/client" "src/queue.c"
	.section	.rodata
	.align 8
.LC0:
	.string	"\033[32m[+] (%d) Thread was created \n\033[0m"
	.align 8
.LC1:
	.string	"\033[32m[+] (%d) Thread waiting for Connection\n\n\033[0m"
	.align 8
.LC2:
	.string	"\033[32m[+] (%d) Thread exiting\n\n\033[0m"
	.text
	.globl	default_thread_func
	.type	default_thread_func, @function
default_thread_func:
.LFB320:
	.file 1 "src/queue.c"
	.loc 1 80 1
	.cfi_startproc
	endbr64
	pushq	%rbp
	.cfi_def_cfa_offset 16
	.cfi_offset 6, -16
	movq	%rsp, %rbp
	.cfi_def_cfa_register 6
	subq	$32, %rsp
	movq	%rdi, -24(%rbp)
	.loc 1 81 20
	movq	-24(%rbp), %rax
	movq	%rax, -16(%rbp)
	.loc 1 82 5
	call	gettid@PLT
	.loc 1 82 5 is_stmt 0 discriminator 1
	movl	%eax, %esi
	leaq	.LC0(%rip), %rax
	movq	%rax, %rdi
	movl	$0, %eax
	call	printf@PLT
	.loc 1 83 11 is_stmt 1
	jmp	.L2
.L6:
.LBB2:
	.loc 1 85 9
	call	gettid@PLT
	.loc 1 85 9 is_stmt 0 discriminator 1
	movl	%eax, %esi
	leaq	.LC1(%rip), %rax
	movq	%rax, %rdi
	movl	$0, %eax
	call	printf@PLT
	.loc 1 86 9 is_stmt 1
	movq	-16(%rbp), %rax
	addq	$160, %rax
	movq	%rax, %rdi
	call	sem_wait@PLT
	.loc 1 88 9
	movq	-16(%rbp), %rax
	addq	$24, %rax
	movq	%rax, %rdi
	call	pthread_mutex_lock@PLT
	.loc 1 89 20
	movq	-16(%rbp), %rax
	movq	192(%rax), %rax
	movq	%rax, -8(%rbp)
	.loc 1 92 12
	cmpq	$0, -8(%rbp)
	je	.L3
	.loc 1 95 15
	movq	-16(%rbp), %rax
	movl	(%rax), %eax
	.loc 1 95 38
	leal	-1(%rax), %edx
	movq	-16(%rbp), %rax
	movl	%edx, (%rax)
	.loc 1 96 45
	movq	-8(%rbp), %rax
	movq	(%rax), %rdx
	.loc 1 96 29
	movq	-16(%rbp), %rax
	movq	%rdx, 192(%rax)
	.loc 1 97 18
	movq	-16(%rbp), %rax
	movq	192(%rax), %rax
	.loc 1 97 15
	testq	%rax, %rax
	jne	.L4
	.loc 1 98 33
	movq	-16(%rbp), %rax
	movq	$0, 200(%rax)
.L4:
	.loc 1 100 13
	movq	-16(%rbp), %rax
	addq	$24, %rax
	movq	%rax, %rdi
	call	pthread_mutex_unlock@PLT
	.loc 1 102 28
	movq	-8(%rbp), %rax
	movq	8(%rax), %rdx
	movq	-8(%rbp), %rax
	movq	16(%rax), %rax
	movq	%rax, %rdi
	call	*%rdx
.LVL0:
	.loc 1 104 13
	movq	-8(%rbp), %rax
	movq	%rax, %rdi
	call	free@PLT
	jmp	.L2
.L3:
	.loc 1 107 13
	movq	-16(%rbp), %rax
	addq	$24, %rax
	movq	%rax, %rdi
	call	pthread_mutex_unlock@PLT
	.loc 1 108 29
	movq	-16(%rbp), %rax
	movq	$0, 200(%rax)
	.loc 1 109 39
	movq	-16(%rbp), %rax
	movl	$0, (%rax)
.L2:
.LBE2:
	.loc 1 83 15
	movq	-16(%rbp), %rax
	movl	208(%rax), %eax
	.loc 1 83 12
	testl	%eax, %eax
	je	.L6
	.loc 1 112 5
	call	gettid@PLT
	.loc 1 112 5 is_stmt 0 discriminator 1
	movl	%eax, %esi
	leaq	.LC2(%rip), %rax
	movq	%rax, %rdi
	movl	$0, %eax
	call	printf@PLT
	.loc 1 113 12 is_stmt 1
	movl	$0, %eax
	.loc 1 114 1
	leave
	.cfi_def_cfa 7, 8
	ret
	.cfi_endproc
.LFE320:
	.size	default_thread_func, .-default_thread_func
	.globl	dispatch
	.type	dispatch, @function
dispatch:
.LFB321:
	.loc 1 132 1
	.cfi_startproc
	endbr64
	pushq	%rbp
	.cfi_def_cfa_offset 16
	.cfi_offset 6, -16
	movq	%rsp, %rbp
	.cfi_def_cfa_register 6
	subq	$48, %rsp
	movq	%rdi, -24(%rbp)
	movq	%rsi, -32(%rbp)
	movq	%rdx, -40(%rbp)
	.loc 1 134 20
	movq	-24(%rbp), %rax
	movq	%rax, -16(%rbp)
	.loc 1 135 7
	cmpq	$0, -16(%rbp)
	je	.L16
	.loc 1 135 19 discriminator 2
	cmpq	$0, -32(%rbp)
	je	.L16
	.loc 1 138 33
	movl	$24, %edi
	call	malloc@PLT
	movq	%rax, -8(%rbp)
	.loc 1 140 7
	cmpq	$0, -8(%rbp)
	je	.L17
	.loc 1 141 37
	movq	-8(%rbp), %rax
	movq	-32(%rbp), %rdx
	movq	%rdx, 8(%rax)
	.loc 1 142 24
	movq	-8(%rbp), %rax
	movq	-40(%rbp), %rdx
	movq	%rdx, 16(%rax)
	.loc 1 143 33
	movq	-8(%rbp), %rax
	movq	$0, (%rax)
	.loc 1 145 5
	movq	-16(%rbp), %rax
	addq	$24, %rax
	movq	%rax, %rdi
	call	pthread_mutex_lock@PLT
	.loc 1 148 11
	movq	-16(%rbp), %rax
	movq	200(%rax), %rax
	.loc 1 148 8
	testq	%rax, %rax
	je	.L13
	.loc 1 148 38 discriminator 1
	movq	-16(%rbp), %rax
	movq	192(%rax), %rax
	.loc 1 148 33 discriminator 1
	testq	%rax, %rax
	jne	.L14
.L13:
	.loc 1 151 25
	movq	-16(%rbp), %rax
	movq	-8(%rbp), %rdx
	movq	%rdx, 192(%rax)
	.loc 1 152 25
	movq	-16(%rbp), %rax
	movq	-8(%rbp), %rdx
	movq	%rdx, 200(%rax)
	.loc 1 153 11
	movq	-16(%rbp), %rax
	movl	(%rax), %eax
	.loc 1 153 34
	leal	1(%rax), %edx
	movq	-16(%rbp), %rax
	movl	%edx, (%rax)
	jmp	.L15
.L14:
	.loc 1 158 11
	movq	-16(%rbp), %rax
	movq	200(%rax), %rax
	.loc 1 158 38
	movq	-8(%rbp), %rdx
	movq	%rdx, (%rax)
	.loc 1 159 25
	movq	-16(%rbp), %rax
	movq	-8(%rbp), %rdx
	movq	%rdx, 200(%rax)
	.loc 1 160 11
	movq	-16(%rbp), %rax
	movl	(%rax), %eax
	.loc 1 160 34
	leal	1(%rax), %edx
	movq	-16(%rbp), %rax
	movl	%edx, (%rax)
.L15:
	.loc 1 164 5
	movq	-16(%rbp), %rax
	addq	$160, %rax
	movq	%rax, %rdi
	call	sem_post@PLT
	.loc 1 165 5
	movq	-16(%rbp), %rax
	addq	$24, %rax
	movq	%rax, %rdi
	call	pthread_mutex_unlock@PLT
	jmp	.L8
.L16:
	.loc 1 135 48
	nop
	jmp	.L8
.L17:
	.loc 1 140 32
	nop
.L8:
	.loc 1 167 1
	leave
	.cfi_def_cfa 7, 8
	ret
	.cfi_endproc
.LFE321:
	.size	dispatch, .-dispatch
	.section	.rodata
	.align 8
.LC3:
	.string	"\033[31m[-] Max thread limit reached, change MAX_THREAD_IN_POOL\n\033[0m"
	.align 8
.LC4:
	.string	"\033[31mError during threadpool creation!\n\033[0m"
	.text
	.globl	create_threadpool
	.type	create_threadpool, @function
create_threadpool:
.LFB322:
	.loc 1 184 1
	.cfi_startproc
	endbr64
	pushq	%rbp
	.cfi_def_cfa_offset 16
	.cfi_offset 6, -16
	movq	%rsp, %rbp
	.cfi_def_cfa_register 6
	subq	$32, %rsp
	movl	%edi, -20(%rbp)
	.loc 1 185 8
	cmpl	$200, -20(%rbp)
	jg	.L19
	.loc 1 185 53 discriminator 1
	cmpl	$0, -20(%rbp)
	jg	.L20
.L19:
	.loc 1 187 9
	leaq	.LC3(%rip), %rax
	movq	%rax, %rdi
	movl	$0, %eax
	call	printf@PLT
	.loc 1 188 16
	movl	$0, %eax
	jmp	.L21
.L20:
	.loc 1 192 42
	movl	$216, %edi
	call	malloc@PLT
	movq	%rax, -8(%rbp)
	.loc 1 193 8
	cmpq	$0, -8(%rbp)
	jne	.L22
	.loc 1 194 16
	movl	$0, %eax
	jmp	.L21
.L22:
	.loc 1 196 24
	movq	-8(%rbp), %rax
	movl	-20(%rbp), %edx
	movl	%edx, 4(%rax)
	.loc 1 197 31
	movq	-8(%rbp), %rax
	movl	$0, (%rax)
	.loc 1 198 21
	movq	-8(%rbp), %rax
	movq	$0, 192(%rax)
	.loc 1 199 21
	movq	-8(%rbp), %rax
	movq	$0, 200(%rax)
	.loc 1 200 20
	movl	-20(%rbp), %eax
	cltq
	salq	$3, %rax
	movq	%rax, %rdi
	call	malloc@PLT
	movq	%rax, %rdx
	.loc 1 200 18 discriminator 1
	movq	-8(%rbp), %rax
	movq	%rdx, 8(%rax)
	.loc 1 201 25
	movl	-20(%rbp), %eax
	movslq	%eax, %rdx
	movq	%rdx, %rax
	salq	$3, %rax
	subq	%rdx, %rax
	salq	$3, %rax
	movq	%rax, %rdi
	call	malloc@PLT
	movq	%rax, %rdx
	.loc 1 201 23 discriminator 1
	movq	-8(%rbp), %rax
	movq	%rdx, 16(%rax)
	.loc 1 202 18
	movq	-8(%rbp), %rax
	movl	$0, 208(%rax)
	.loc 1 205 5
	movq	-8(%rbp), %rax
	addq	$24, %rax
	movl	$0, %esi
	movq	%rax, %rdi
	call	pthread_mutex_init@PLT
	.loc 1 206 5
	movq	-8(%rbp), %rax
	addq	$64, %rax
	movl	$0, %esi
	movq	%rax, %rdi
	call	pthread_cond_init@PLT
	.loc 1 207 5
	movq	-8(%rbp), %rax
	addq	$112, %rax
	movl	$0, %esi
	movq	%rax, %rdi
	call	pthread_cond_init@PLT
	.loc 1 208 5
	movq	-8(%rbp), %rax
	addq	$160, %rax
	movl	$0, %edx
	movl	$0, %esi
	movq	%rax, %rdi
	call	sem_init@PLT
.LBB3:
	.loc 1 211 14
	movl	$0, -12(%rbp)
	.loc 1 211 5
	jmp	.L23
.L25:
	.loc 1 214 31
	movq	-8(%rbp), %rax
	movq	16(%rax), %rcx
	.loc 1 214 46
	movl	-12(%rbp), %eax
	movslq	%eax, %rdx
	movq	%rdx, %rax
	salq	$3, %rax
	subq	%rdx, %rax
	salq	$3, %rax
	.loc 1 214 9
	addq	%rcx, %rax
	movq	%rax, %rdi
	call	pthread_attr_init@PLT
	.loc 1 219 32
	movq	-8(%rbp), %rax
	movq	8(%rax), %rax
	.loc 1 219 42
	movl	-12(%rbp), %edx
	movslq	%edx, %rdx
	salq	$3, %rdx
	.loc 1 219 13
	leaq	(%rax,%rdx), %rdi
	movq	-8(%rbp), %rax
	movq	%rax, %rcx
	leaq	default_thread_func(%rip), %rax
	movq	%rax, %rdx
	movl	$0, %esi
	call	pthread_create@PLT
	.loc 1 219 12 discriminator 1
	testl	%eax, %eax
	je	.L24
	.loc 1 221 13
	movq	stderr(%rip), %rax
	movq	%rax, %rcx
	movl	$43, %edx
	movl	$1, %esi
	leaq	.LC4(%rip), %rax
	movq	%rax, %rdi
	call	fwrite@PLT
	.loc 1 223 13
	movq	-8(%rbp), %rax
	movq	%rax, %rdi
	call	destroy_threadpool
	.loc 1 225 13
	movl	$1, %edi
	call	exit@PLT
.L24:
	.loc 1 211 50 discriminator 2
	addl	$1, -12(%rbp)
.L23:
	.loc 1 211 23 discriminator 1
	movl	-12(%rbp), %eax
	cmpl	-20(%rbp), %eax
	jl	.L25
.LBE3:
	.loc 1 229 12
	movq	-8(%rbp), %rax
.L21:
	.loc 1 230 1
	leave
	.cfi_def_cfa 7, 8
	ret
	.cfi_endproc
.LFE322:
	.size	create_threadpool, .-create_threadpool
	.globl	destroy_threadpool
	.type	destroy_threadpool, @function
destroy_threadpool:
.LFB323:
	.loc 1 246 39
	.cfi_startproc
	endbr64
	pushq	%rbp
	.cfi_def_cfa_offset 16
	.cfi_offset 6, -16
	movq	%rsp, %rbp
	.cfi_def_cfa_register 6
	subq	$64, %rsp
	movq	%rdi, -56(%rbp)
	.loc 1 246 39
	movq	%fs:40, %rax
	movq	%rax, -8(%rbp)
	xorl	%eax, %eax
	.loc 1 247 7
	cmpq	$0, -56(%rbp)
	je	.L36
	.loc 1 249 20
	movq	-56(%rbp), %rax
	movq	%rax, -24(%rbp)
	.loc 1 252 5
	movq	-24(%rbp), %rax
	addq	$24, %rax
	movq	%rax, %rdi
	call	pthread_mutex_lock@PLT
	.loc 1 253 19
	movq	-24(%rbp), %rax
	movl	$1, 208(%rax)
	.loc 1 254 5
	movq	-24(%rbp), %rax
	addq	$24, %rax
	movq	%rax, %rdi
	call	pthread_mutex_unlock@PLT
.LBB4:
	.loc 1 257 13
	movl	$0, -40(%rbp)
	.loc 1 257 5
	jmp	.L29
.L30:
	.loc 1 258 9
	movq	-24(%rbp), %rax
	addq	$160, %rax
	movq	%rax, %rdi
	call	sem_post@PLT
	.loc 1 257 36 discriminator 3
	addl	$1, -40(%rbp)
.L29:
	.loc 1 257 19 discriminator 1
	cmpl	$9, -40(%rbp)
	jle	.L30
.LBE4:
.LBB5:
	.loc 1 262 13
	movl	$0, -36(%rbp)
	.loc 1 262 5
	jmp	.L31
.L32:
.LBB6:
	.loc 1 264 9
	movl	$1000, %edi
	call	usleep@PLT
	.loc 1 265 25
	movq	-24(%rbp), %rax
	movq	8(%rax), %rax
	.loc 1 265 35
	movl	-36(%rbp), %edx
	movslq	%edx, %rdx
	salq	$3, %rdx
	addq	%rdx, %rax
	.loc 1 265 9
	movq	(%rax), %rax
	movl	$0, %esi
	movq	%rax, %rdi
	call	pthread_join@PLT
	.loc 1 267 9
	movq	-24(%rbp), %rax
	leaq	160(%rax), %rdx
	leaq	-44(%rbp), %rax
	movq	%rax, %rsi
	movq	%rdx, %rdi
	call	sem_getvalue@PLT
	.loc 1 268 35
	movq	-24(%rbp), %rax
	movq	16(%rax), %rcx
	.loc 1 268 50
	movl	-36(%rbp), %eax
	movslq	%eax, %rdx
	movq	%rdx, %rax
	salq	$3, %rax
	subq	%rdx, %rax
	salq	$3, %rax
	.loc 1 268 9
	addq	%rcx, %rax
	movq	%rax, %rdi
	call	pthread_attr_destroy@PLT
.LBE6:
	.loc 1 262 36 discriminator 3
	addl	$1, -36(%rbp)
.L31:
	.loc 1 262 19 discriminator 1
	cmpl	$9, -36(%rbp)
	jle	.L32
.LBE5:
	.loc 1 272 16
	movq	-24(%rbp), %rax
	movq	192(%rax), %rax
	movq	%rax, -32(%rbp)
	.loc 1 273 10
	jmp	.L33
.L34:
.LBB7:
	.loc 1 274 20
	movq	-32(%rbp), %rax
	movq	(%rax), %rax
	movq	%rax, -16(%rbp)
	.loc 1 275 9
	movq	-32(%rbp), %rax
	movq	%rax, %rdi
	call	free@PLT
	.loc 1 276 17
	movq	-16(%rbp), %rax
	movq	%rax, -32(%rbp)
.L33:
.LBE7:
	.loc 1 273 19
	cmpq	$0, -32(%rbp)
	jne	.L34
	.loc 1 280 5
	movq	-24(%rbp), %rax
	addq	$24, %rax
	movq	%rax, %rdi
	call	pthread_mutex_destroy@PLT
	.loc 1 281 5
	movq	-24(%rbp), %rax
	addq	$64, %rax
	movq	%rax, %rdi
	call	pthread_cond_destroy@PLT
	.loc 1 282 5
	movq	-24(%rbp), %rax
	addq	$112, %rax
	movq	%rax, %rdi
	call	pthread_cond_destroy@PLT
	.loc 1 283 5
	movq	-24(%rbp), %rax
	addq	$160, %rax
	movq	%rax, %rdi
	call	sem_destroy@PLT
	.loc 1 286 13
	movq	-24(%rbp), %rax
	movq	8(%rax), %rax
	.loc 1 286 5
	movq	%rax, %rdi
	call	free@PLT
	.loc 1 287 13
	movq	-24(%rbp), %rax
	movq	16(%rax), %rax
	.loc 1 287 5
	movq	%rax, %rdi
	call	free@PLT
	.loc 1 288 5
	movq	-24(%rbp), %rax
	movq	%rax, %rdi
	call	free@PLT
	jmp	.L26
.L36:
	.loc 1 247 20
	nop
.L26:
	.loc 1 289 1
	movq	-8(%rbp), %rax
	subq	%fs:40, %rax
	je	.L35
	call	__stack_chk_fail@PLT
.L35:
	leave
	.cfi_def_cfa 7, 8
	ret
	.cfi_endproc
.LFE323:
	.size	destroy_threadpool, .-destroy_threadpool
.Letext0:
	.file 2 "/usr/include/x86_64-linux-gnu/bits/types.h"
	.file 3 "/usr/include/x86_64-linux-gnu/bits/types/struct_FILE.h"
	.file 4 "/usr/include/x86_64-linux-gnu/bits/types/FILE.h"
	.file 5 "/usr/include/x86_64-linux-gnu/bits/atomic_wide_counter.h"
	.file 6 "/usr/include/x86_64-linux-gnu/bits/thread-shared-types.h"
	.file 7 "/usr/include/x86_64-linux-gnu/bits/struct_mutex.h"
	.file 8 "/usr/include/x86_64-linux-gnu/bits/pthreadtypes.h"
	.file 9 "/usr/include/unistd.h"
	.file 10 "/usr/include/x86_64-linux-gnu/bits/sockaddr.h"
	.file 11 "/usr/include/x86_64-linux-gnu/bits/socket.h"
	.file 12 "/usr/include/netdb.h"
	.file 13 "./common.h"
	.file 14 "includes/queue.h"
	.file 15 "/usr/include/x86_64-linux-gnu/bits/semaphore.h"
	.file 16 "/usr/include/semaphore.h"
	.file 17 "/usr/include/pthread.h"
	.file 18 "/usr/include/stdlib.h"
	.file 19 "/usr/include/stdio.h"
	.file 20 "/usr/include/x86_64-linux-gnu/bits/unistd_ext.h"
	.section	.note.GNU-stack,"",@progbits
	.section	.note.gnu.property,"a"
	.align 8
	.long	1f - 0f
	.long	4f - 1f
	.long	5
0:
	.string	"GNU"
1:
	.align 8
	.long	0xc0000002
	.long	3f - 2f
2:
	.long	0x3
3:
	.align 8
4:
