	.file	"server_method.c"
	.text
.Ltext0:
	.file 0 "/home/parth/Work/All_data/university/Network System/Assignments/PA4/client" "src/server_method.c"
	.section	.rodata
	.align 8
.LC0:
	.string	"\033[33m\n========================================================\n\033[0m"
	.align 8
.LC1:
	.string	"\033[33m    DISTRIBUTED FILE SYSTEM CLIENT (DFC)\n\033[0m"
	.align 8
.LC2:
	.string	"\033[33m========================================================\n\n\033[0m"
	.align 8
.LC3:
	.string	"\033[33mAvailable Commands:\n\n\033[0m"
	.align 8
.LC4:
	.string	"  get <filename>    Retrieve file from servers and reconstruct locally"
	.align 8
.LC5:
	.string	"  put <filename>    Upload file to servers with redundant distribution"
	.align 8
.LC6:
	.string	"  delete <filename> Remove file from all servers"
	.align 8
.LC7:
	.string	"  ls                List all files available across all servers"
	.align 8
.LC8:
	.string	"  server info       Display connection status of all servers"
	.align 8
.LC9:
	.string	"  exit              Terminate client and clean up resources"
	.align 8
.LC10:
	.string	"  help              Display this help menu"
	.text
	.globl	print_menu
	.type	print_menu, @function
print_menu:
.LFB320:
	.file 1 "src/server_method.c"
	.loc 1 14 1
	.cfi_startproc
	endbr64
	pushq	%rbp
	.cfi_def_cfa_offset 16
	.cfi_offset 6, -16
	movq	%rsp, %rbp
	.cfi_def_cfa_register 6
	.loc 1 16 5
	leaq	.LC0(%rip), %rax
	movq	%rax, %rdi
	movl	$0, %eax
	call	printf@PLT
	.loc 1 17 5
	leaq	.LC1(%rip), %rax
	movq	%rax, %rdi
	movl	$0, %eax
	call	printf@PLT
	.loc 1 18 5
	leaq	.LC2(%rip), %rax
	movq	%rax, %rdi
	movl	$0, %eax
	call	printf@PLT
	.loc 1 21 5
	leaq	.LC3(%rip), %rax
	movq	%rax, %rdi
	movl	$0, %eax
	call	printf@PLT
	.loc 1 22 5
	leaq	.LC4(%rip), %rax
	movq	%rax, %rdi
	call	puts@PLT
	.loc 1 23 5
	leaq	.LC5(%rip), %rax
	movq	%rax, %rdi
	call	puts@PLT
	.loc 1 24 5
	leaq	.LC6(%rip), %rax
	movq	%rax, %rdi
	call	puts@PLT
	.loc 1 25 5
	leaq	.LC7(%rip), %rax
	movq	%rax, %rdi
	call	puts@PLT
	.loc 1 26 5
	leaq	.LC8(%rip), %rax
	movq	%rax, %rdi
	call	puts@PLT
	.loc 1 27 5
	leaq	.LC9(%rip), %rax
	movq	%rax, %rdi
	call	puts@PLT
	.loc 1 28 5
	leaq	.LC10(%rip), %rax
	movq	%rax, %rdi
	call	puts@PLT
	.loc 1 29 5
	movl	$10, %edi
	call	putchar@PLT
	.loc 1 30 1
	nop
	popq	%rbp
	.cfi_def_cfa 7, 8
	ret
	.cfi_endproc
.LFE320:
	.size	print_menu, .-print_menu
	.section	.rodata
.LC11:
	.string	"ls"
.LC12:
	.string	"list"
.LC13:
	.string	"get"
.LC14:
	.string	"put"
.LC15:
	.string	"exit"
.LC16:
	.string	"delete"
.LC17:
	.string	"serverinfo"
.LC18:
	.string	"info"
.LC19:
	.string	"help"
	.align 8
.LC20:
	.string	"\033[31m[-] ERROR: Invalid command or missing parameters\n\033[0m"
	.text
	.globl	whichcmd
	.type	whichcmd, @function
whichcmd:
.LFB321:
	.loc 1 53 1
	.cfi_startproc
	endbr64
	pushq	%rbp
	.cfi_def_cfa_offset 16
	.cfi_offset 6, -16
	movq	%rsp, %rbp
	.cfi_def_cfa_register 6
	subq	$32, %rsp
	movl	%edi, -20(%rbp)
	movq	%rsi, -32(%rbp)
	.loc 1 55 11
	movq	-32(%rbp), %rax
	movq	8(%rax), %rax
	movq	%rax, -8(%rbp)
	.loc 1 56 10
	movq	-8(%rbp), %rax
	movl	$2, %edx
	leaq	.LC11(%rip), %rcx
	movq	%rcx, %rsi
	movq	%rax, %rdi
	call	strncmp@PLT
	.loc 1 56 8 discriminator 1
	testl	%eax, %eax
	jne	.L3
	.loc 1 56 51 discriminator 1
	movq	-8(%rbp), %rax
	movq	%rax, %rdi
	call	strlen@PLT
	.loc 1 56 48 discriminator 1
	cmpq	$2, %rax
	je	.L4
.L3:
	.loc 1 56 84 discriminator 3
	movq	-8(%rbp), %rax
	movl	$4, %edx
	leaq	.LC12(%rip), %rcx
	movq	%rcx, %rsi
	movq	%rax, %rdi
	call	strncmp@PLT
	.loc 1 56 80 discriminator 1
	testl	%eax, %eax
	jne	.L5
	.loc 1 56 129 discriminator 4
	movq	-8(%rbp), %rax
	movq	%rax, %rdi
	call	strlen@PLT
	.loc 1 56 126 discriminator 1
	cmpq	$4, %rax
	jne	.L5
.L4:
	.loc 1 58 16
	movl	$3, %eax
	jmp	.L6
.L5:
	.loc 1 60 14
	movq	-8(%rbp), %rax
	movl	$3, %edx
	leaq	.LC13(%rip), %rcx
	movq	%rcx, %rsi
	movq	%rax, %rdi
	call	strncmp@PLT
	.loc 1 60 13 discriminator 1
	testl	%eax, %eax
	jne	.L7
	.loc 1 60 57 discriminator 1
	movq	-8(%rbp), %rax
	movq	%rax, %rdi
	call	strlen@PLT
	.loc 1 60 54 discriminator 1
	cmpq	$3, %rax
	jne	.L7
	.loc 1 62 12
	cmpl	$2, -20(%rbp)
	jle	.L18
	.loc 1 64 16
	movl	$0, %eax
	jmp	.L6
.L7:
	.loc 1 66 14
	movq	-8(%rbp), %rax
	movl	$3, %edx
	leaq	.LC14(%rip), %rcx
	movq	%rcx, %rsi
	movq	%rax, %rdi
	call	strncmp@PLT
	.loc 1 66 13 discriminator 1
	testl	%eax, %eax
	jne	.L10
	.loc 1 66 57 discriminator 1
	movq	-8(%rbp), %rax
	movq	%rax, %rdi
	call	strlen@PLT
	.loc 1 66 54 discriminator 1
	cmpq	$3, %rax
	jne	.L10
	.loc 1 68 12
	cmpl	$2, -20(%rbp)
	jle	.L19
	.loc 1 70 16
	movl	$1, %eax
	jmp	.L6
.L10:
	.loc 1 72 14
	movq	-8(%rbp), %rax
	movl	$4, %edx
	leaq	.LC15(%rip), %rcx
	movq	%rcx, %rsi
	movq	%rax, %rdi
	call	strncmp@PLT
	.loc 1 72 13 discriminator 1
	testl	%eax, %eax
	jne	.L12
	.loc 1 72 59 discriminator 1
	movq	-8(%rbp), %rax
	movq	%rax, %rdi
	call	strlen@PLT
	.loc 1 72 56 discriminator 1
	cmpq	$4, %rax
	jne	.L12
	.loc 1 74 16
	movl	$4, %eax
	jmp	.L6
.L12:
	.loc 1 76 14
	movq	-8(%rbp), %rax
	movl	$6, %edx
	leaq	.LC16(%rip), %rcx
	movq	%rcx, %rsi
	movq	%rax, %rdi
	call	strncmp@PLT
	.loc 1 76 13 discriminator 1
	testl	%eax, %eax
	jne	.L13
	.loc 1 76 63 discriminator 1
	movq	-8(%rbp), %rax
	movq	%rax, %rdi
	call	strlen@PLT
	.loc 1 76 60 discriminator 1
	cmpq	$6, %rax
	jne	.L13
	.loc 1 78 12
	cmpl	$2, -20(%rbp)
	jle	.L20
	.loc 1 80 16
	movl	$2, %eax
	jmp	.L6
.L13:
	.loc 1 82 15
	movq	-8(%rbp), %rax
	movl	$10, %edx
	leaq	.LC17(%rip), %rcx
	movq	%rcx, %rsi
	movq	%rax, %rdi
	call	strncmp@PLT
	.loc 1 82 13 discriminator 1
	testl	%eax, %eax
	jne	.L15
	.loc 1 82 72 discriminator 1
	movq	-8(%rbp), %rax
	movq	%rax, %rdi
	call	strlen@PLT
	.loc 1 82 69 discriminator 1
	cmpq	$10, %rax
	je	.L16
.L15:
	.loc 1 82 113 discriminator 3
	movq	-8(%rbp), %rax
	movl	$4, %edx
	leaq	.LC18(%rip), %rcx
	movq	%rcx, %rsi
	movq	%rax, %rdi
	call	strncmp@PLT
	.loc 1 82 109 discriminator 1
	testl	%eax, %eax
	jne	.L17
	.loc 1 82 158 discriminator 4
	movq	-8(%rbp), %rax
	movq	%rax, %rdi
	call	strlen@PLT
	.loc 1 82 155 discriminator 1
	cmpq	$4, %rax
	jne	.L17
.L16:
	.loc 1 84 16
	movl	$5, %eax
	jmp	.L6
.L17:
	.loc 1 86 14
	movq	-8(%rbp), %rax
	movl	$4, %edx
	leaq	.LC19(%rip), %rcx
	movq	%rcx, %rsi
	movq	%rax, %rdi
	call	strncmp@PLT
	.loc 1 86 13 discriminator 1
	testl	%eax, %eax
	jne	.L21
	.loc 1 86 59 discriminator 1
	movq	-8(%rbp), %rax
	movq	%rax, %rdi
	call	strlen@PLT
	.loc 1 86 56 discriminator 1
	cmpq	$4, %rax
	jne	.L21
	.loc 1 88 9
	movl	$0, %eax
	call	print_menu
	.loc 1 89 16
	movl	$6, %eax
	jmp	.L6
.L18:
	.loc 1 63 13
	nop
	jmp	.L9
.L19:
	.loc 1 69 13
	nop
	jmp	.L9
.L20:
	.loc 1 79 13
	nop
	jmp	.L9
.L21:
	.loc 1 92 1
	nop
.L9:
	.loc 1 93 5
	leaq	.LC20(%rip), %rax
	movq	%rax, %rdi
	movl	$0, %eax
	call	printf@PLT
	.loc 1 94 5
	movl	$0, %eax
	call	print_menu
	.loc 1 96 12
	movl	$-1, %eax
.L6:
	.loc 1 97 1
	leave
	.cfi_def_cfa 7, 8
	ret
	.cfi_endproc
.LFE321:
	.size	whichcmd, .-whichcmd
.Letext0:
	.file 2 "/usr/lib/gcc/x86_64-linux-gnu/14/include/stddef.h"
	.file 3 "./common.h"
	.file 4 "/usr/include/string.h"
	.file 5 "/usr/include/stdio.h"
	.section	.note.GNU-stack,"",@progbits
	.section	.note.gnu.property,"a"
	.align 8
	.long	1f - 0f
	.long	4f - 1f
	.long	5
0:
	.string	"GNU"
1:
	.align 8
	.long	0xc0000002
	.long	3f - 2f
2:
	.long	0x3
3:
	.align 8
4:
