	.file	"handle_req.c"
	.text
.Ltext0:
	.file 0 "/home/parth/Work/All_data/university/Network System/Assignments/PA4_not_relaible/PA4/server" "src/handle_req.c"
	.globl	get_in_addr
	.type	get_in_addr, @function
get_in_addr:
.LFB320:
	.file 1 "src/handle_req.c"
	.loc 1 55 1
	.cfi_startproc
	endbr64
	pushq	%rbp
	.cfi_def_cfa_offset 16
	.cfi_offset 6, -16
	movq	%rsp, %rbp
	.cfi_def_cfa_register 6
	movq	%rdi, -8(%rbp)
	.loc 1 56 11
	movq	-8(%rbp), %rax
	movzwl	(%rax), %eax
	.loc 1 56 8
	cmpw	$2, %ax
	jne	.L2
	.loc 1 58 16
	movq	-8(%rbp), %rax
	addq	$4, %rax
	jmp	.L3
.L2:
	.loc 1 61 12
	movq	-8(%rbp), %rax
	addq	$8, %rax
.L3:
	.loc 1 62 1
	popq	%rbp
	.cfi_def_cfa 7, 8
	ret
	.cfi_endproc
.LFE320:
	.size	get_in_addr, .-get_in_addr
	.section	.rodata
.LC0:
	.string	"Too large filename size "
	.align 8
.LC1:
	.string	"\033[31m[-] Recv failed, error no: %d \n\033[0m"
	.align 8
.LC2:
	.string	"\033[33m[-] Client Closed the Connection, error no: %d \n\033[0m"
.LC3:
	.string	"%s/%s_%d"
.LC4:
	.string	"wb"
	.align 8
.LC5:
	.string	"\033[31m\n[-] Error opening file: %s\n\033[0m"
	.align 8
.LC6:
	.string	"\033[31m    Error: %s (code: %d)\n\n\033[0m"
	.align 8
.LC7:
	.string	"\033[31m[-] Num bytes read and write did not match \n\033[0m"
.LC8:
	.string	"ack\t\n0\t\n"
	.string	""
	.align 8
.LC9:
	.string	"\033[31m[-] Send failed, error no: %d \n\033[0m"
	.align 8
.LC10:
	.string	"\033[32m\n=========================================\n\033[0m"
.LC11:
	.string	"\033[32m    PUT SUCCESSFUL\n\033[0m"
.LC12:
	.string	"\033[32m    FILE: %s\n\033[0m"
	.align 8
.LC13:
	.string	"\033[32m    CHUNK: %d stored !\n\033[0m"
	.align 8
.LC14:
	.string	"\033[32m=========================================\n\n\033[0m"
.LC15:
	.string	"nack\t\n0\t\n"
	.string	""
	.align 8
.LC16:
	.string	"\033[31m\n=========================================\n\033[0m"
.LC17:
	.string	"\033[31m    PUT FAILED\n\033[0m"
.LC18:
	.string	"\033[31m    FILE: %s\n\033[0m"
	.align 8
.LC19:
	.string	"\033[31m    CHUNK: %d stored !\n\033[0m"
	.align 8
.LC20:
	.string	"\033[31m=========================================\n\n\033[0m"
	.text
	.globl	put_command
	.type	put_command, @function
put_command:
.LFB321:
	.loc 1 75 1
	.cfi_startproc
	endbr64
	pushq	%rbp
	.cfi_def_cfa_offset 16
	.cfi_offset 6, -16
	movq	%rsp, %rbp
	.cfi_def_cfa_register 6
	pushq	%rbx
	leaq	-28672(%rsp), %r11
.LPSRL0:
	subq	$4096, %rsp
	orq	$0, (%rsp)
	cmpq	%r11, %rsp
	jne	.LPSRL0
	subq	$2136, %rsp
	.cfi_offset 3, -24
	movq	%rdi, -30808(%rbp)
	movq	%rsi, -30816(%rbp)
	.loc 1 75 1
	movq	%fs:40, %rax
	movq	%rax, -24(%rbp)
	xorl	%eax, %eax
	.loc 1 76 9
	movl	$0, -30792(%rbp)
	.loc 1 76 23
	movl	$0, -30800(%rbp)
	.loc 1 76 40
	movl	$0, -30788(%rbp)
	.loc 1 78 9
	movl	$0, -30796(%rbp)
	.loc 1 79 11
	movq	$0, -30768(%rbp)
	.loc 1 80 11
	movq	$0, -30760(%rbp)
	.loc 1 82 5
	leaq	-30752(%rbp), %rax
	movl	$30720, %edx
	movl	$0, %esi
	movq	%rax, %rdi
	call	memset@PLT
	.loc 1 83 22
	movq	-30816(%rbp), %rax
	movl	2(%rax), %eax
	.loc 1 83 7
	cmpl	$30720, %eax
	jbe	.L5
	.loc 1 84 9
	leaq	.LC0(%rip), %rax
	movq	%rax, %rdi
	call	puts@PLT
	.loc 1 85 9
	jmp	.L6
.L5:
.LBB2:
	.loc 1 87 16
	movq	-30816(%rbp), %rax
	movl	2(%rax), %eax
	movl	%eax, %edx
	movq	-30808(%rbp), %rax
	movl	4(%rax), %eax
	leaq	-30752(%rbp), %rsi
	movl	$0, %ecx
	movl	%eax, %edi
	call	recv@PLT
	.loc 1 87 16 is_stmt 0 discriminator 1
	movl	%eax, -30784(%rbp)
	cmpl	$0, -30784(%rbp)
	jns	.L7
	call	__errno_location@PLT
	movl	(%rax), %eax
	movl	%eax, %esi
	leaq	.LC1(%rip), %rax
	movq	%rax, %rdi
	movl	$0, %eax
	call	printf@PLT
	.loc 1 87 16 discriminator 2
	movq	-30808(%rbp), %rax
	movl	4(%rax), %eax
	movl	%eax, %edi
	call	close@PLT
	.loc 1 87 16
	jmp	.L6
.L7:
	.loc 1 87 16 discriminator 2
	cmpl	$0, -30784(%rbp)
	jne	.L8
	.loc 1 87 16 discriminator 3
	movq	-30808(%rbp), %rax
	movl	4(%rax), %eax
	movl	%eax, %edi
	call	close@PLT
	.loc 1 87 16 discriminator 1
	call	__errno_location@PLT
	.loc 1 87 16 discriminator 2
	movl	(%rax), %eax
	movl	%eax, %esi
	leaq	.LC2(%rip), %rax
	movq	%rax, %rdi
	movl	$0, %eax
	call	printf@PLT
	.loc 1 87 16
	jmp	.L6
.L8:
	.loc 1 87 16 discriminator 4
	movl	-30784(%rbp), %eax
.LBE2:
	.loc 1 87 14 is_stmt 1 discriminator 4
	movl	%eax, -30792(%rbp)
	.loc 1 89 82
	movq	-30816(%rbp), %rax
	movzbl	1(%rax), %eax
	.loc 1 89 9
	movzbl	%al, %esi
	movq	-30808(%rbp), %rax
	movq	8(%rax), %rdx
	leaq	-30752(%rbp), %rcx
	leaq	-30768(%rbp), %rax
	movl	%esi, %r8d
	leaq	.LC3(%rip), %rsi
	movq	%rax, %rdi
	movl	$0, %eax
	call	asprintf@PLT
	.loc 1 89 8 discriminator 1
	testl	%eax, %eax
	js	.L25
	.loc 1 92 10
	movq	-30768(%rbp), %rax
	leaq	.LC4(%rip), %rdx
	movq	%rdx, %rsi
	movq	%rax, %rdi
	call	fopen@PLT
	movq	%rax, -30760(%rbp)
	.loc 1 93 8
	cmpq	$0, -30760(%rbp)
	jne	.L11
	.loc 1 95 9
	movq	-30768(%rbp), %rdx
	movq	stderr(%rip), %rax
	leaq	.LC5(%rip), %rcx
	movq	%rcx, %rsi
	movq	%rax, %rdi
	movl	$0, %eax
	call	fprintf@PLT
	.loc 1 96 84
	call	__errno_location@PLT
	.loc 1 96 9 discriminator 1
	movl	(%rax), %ebx
	.loc 1 96 76 discriminator 1
	call	__errno_location@PLT
	.loc 1 96 9 discriminator 2
	movl	(%rax), %eax
	movl	%eax, %edi
	call	strerror@PLT
	movq	%rax, %rdx
	.loc 1 96 9 is_stmt 0 discriminator 3
	movq	stderr(%rip), %rax
	movl	%ebx, %ecx
	leaq	.LC6(%rip), %rsi
	movq	%rax, %rdi
	movl	$0, %eax
	call	fprintf@PLT
	.loc 1 97 16 is_stmt 1
	movl	$-1, -30796(%rbp)
	.loc 1 98 9
	jmp	.L6
.L16:
	.loc 1 103 9
	leaq	-30752(%rbp), %rax
	movl	$30720, %edx
	movl	$0, %esi
	movq	%rax, %rdi
	call	memset@PLT
.LBB3:
	.loc 1 104 20
	movq	-30808(%rbp), %rax
	movl	4(%rax), %eax
	leaq	-30752(%rbp), %rsi
	movl	$0, %ecx
	movl	$30720, %edx
	movl	%eax, %edi
	call	recv@PLT
	.loc 1 104 20 is_stmt 0 discriminator 1
	movl	%eax, -30780(%rbp)
	cmpl	$0, -30780(%rbp)
	jns	.L12
	call	__errno_location@PLT
	movl	(%rax), %eax
	movl	%eax, %esi
	leaq	.LC1(%rip), %rax
	movq	%rax, %rdi
	movl	$0, %eax
	call	printf@PLT
	.loc 1 104 20 discriminator 2
	movq	-30808(%rbp), %rax
	movl	4(%rax), %eax
	movl	%eax, %edi
	call	close@PLT
	.loc 1 104 20
	jmp	.L6
.L12:
	.loc 1 104 20 discriminator 2
	cmpl	$0, -30780(%rbp)
	jne	.L13
	.loc 1 104 20 discriminator 3
	movq	-30808(%rbp), %rax
	movl	4(%rax), %eax
	movl	%eax, %edi
	call	close@PLT
	.loc 1 104 20 discriminator 1
	call	__errno_location@PLT
	.loc 1 104 20 discriminator 2
	movl	(%rax), %eax
	movl	%eax, %esi
	leaq	.LC2(%rip), %rax
	movq	%rax, %rdi
	movl	$0, %eax
	call	printf@PLT
	.loc 1 104 20
	jmp	.L6
.L13:
	.loc 1 104 20 discriminator 4
	movl	-30780(%rbp), %eax
.LBE3:
	.loc 1 104 18 is_stmt 1 discriminator 4
	movl	%eax, -30792(%rbp)
	.loc 1 105 22
	movl	-30792(%rbp), %eax
	movslq	%eax, %rsi
	movq	-30760(%rbp), %rdx
	leaq	-30752(%rbp), %rax
	movq	%rdx, %rcx
	movl	$1, %edx
	movq	%rax, %rdi
	call	fwrite@PLT
	.loc 1 105 20 discriminator 1
	movl	%eax, -30788(%rbp)
	.loc 1 107 36
	movl	-30788(%rbp), %eax
	imull	-30792(%rbp), %eax
	.loc 1 107 12
	cmpl	%eax, -30792(%rbp)
	je	.L14
	.loc 1 109 13
	movq	stderr(%rip), %rax
	movq	%rax, %rcx
	movl	$53, %edx
	movl	$1, %esi
	leaq	.LC7(%rip), %rax
	movq	%rax, %rdi
	call	fwrite@PLT
	.loc 1 110 20
	movl	$-1, -30796(%rbp)
	.loc 1 111 13
	jmp	.L15
.L14:
	.loc 1 113 21
	movl	-30792(%rbp), %eax
	addl	%eax, -30800(%rbp)
.L11:
	.loc 1 101 45
	movq	-30816(%rbp), %rax
	movl	6(%rax), %eax
	.loc 1 101 24
	cmpl	%eax, -30800(%rbp)
	jl	.L16
.L15:
	.loc 1 117 8
	cmpl	$0, -30796(%rbp)
	js	.L17
.LBB4:
	.loc 1 119 20
	movq	-30808(%rbp), %rax
	movl	4(%rax), %eax
	movl	$0, %ecx
	movl	$7, %edx
	leaq	.LC8(%rip), %rsi
	movl	%eax, %edi
	call	send@PLT
	.loc 1 119 20 is_stmt 0 discriminator 1
	movl	%eax, -30772(%rbp)
	cmpl	$0, -30772(%rbp)
	jns	.L18
	call	__errno_location@PLT
	movl	(%rax), %eax
	movl	%eax, %esi
	leaq	.LC9(%rip), %rax
	movq	%rax, %rdi
	movl	$0, %eax
	call	printf@PLT
	.loc 1 119 20 discriminator 2
	movq	-30808(%rbp), %rax
	movl	4(%rax), %eax
	movl	%eax, %edi
	call	close@PLT
	.loc 1 119 20
	jmp	.L6
.L18:
	.loc 1 119 20 discriminator 2
	cmpl	$0, -30772(%rbp)
	jne	.L19
	.loc 1 119 20 discriminator 3
	movq	-30808(%rbp), %rax
	movl	4(%rax), %eax
	movl	%eax, %edi
	call	close@PLT
	.loc 1 119 20 discriminator 1
	call	__errno_location@PLT
	.loc 1 119 20 discriminator 2
	movl	(%rax), %eax
	movl	%eax, %esi
	leaq	.LC2(%rip), %rax
	movq	%rax, %rdi
	movl	$0, %eax
	call	printf@PLT
	.loc 1 119 20
	jmp	.L6
.L19:
	.loc 1 119 20 discriminator 4
	movl	-30772(%rbp), %eax
.LBE4:
	.loc 1 119 18 is_stmt 1 discriminator 4
	movl	%eax, -30792(%rbp)
	.loc 1 120 9
	leaq	.LC10(%rip), %rax
	movq	%rax, %rdi
	movl	$0, %eax
	call	printf@PLT
	.loc 1 121 9
	leaq	.LC11(%rip), %rax
	movq	%rax, %rdi
	movl	$0, %eax
	call	printf@PLT
	.loc 1 122 9
	movq	-30768(%rbp), %rax
	movq	%rax, %rsi
	leaq	.LC12(%rip), %rax
	movq	%rax, %rdi
	movl	$0, %eax
	call	printf@PLT
	.loc 1 123 68
	movq	-30816(%rbp), %rax
	movzbl	1(%rax), %eax
	.loc 1 123 9
	movzbl	%al, %eax
	movl	%eax, %esi
	leaq	.LC13(%rip), %rax
	movq	%rax, %rdi
	movl	$0, %eax
	call	printf@PLT
	.loc 1 124 9
	leaq	.LC14(%rip), %rax
	movq	%rax, %rdi
	movl	$0, %eax
	call	printf@PLT
	jmp	.L6
.L17:
.LBB5:
	.loc 1 129 20
	movq	-30808(%rbp), %rax
	movl	4(%rax), %eax
	movl	$0, %ecx
	movl	$8, %edx
	leaq	.LC15(%rip), %rsi
	movl	%eax, %edi
	call	send@PLT
	.loc 1 129 20 is_stmt 0 discriminator 1
	movl	%eax, -30776(%rbp)
	cmpl	$0, -30776(%rbp)
	jns	.L20
	call	__errno_location@PLT
	movl	(%rax), %eax
	movl	%eax, %esi
	leaq	.LC9(%rip), %rax
	movq	%rax, %rdi
	movl	$0, %eax
	call	printf@PLT
	.loc 1 129 20 discriminator 2
	movq	-30808(%rbp), %rax
	movl	4(%rax), %eax
	movl	%eax, %edi
	call	close@PLT
	.loc 1 129 20
	jmp	.L6
.L20:
	.loc 1 129 20 discriminator 2
	cmpl	$0, -30776(%rbp)
	jne	.L21
	.loc 1 129 20 discriminator 3
	movq	-30808(%rbp), %rax
	movl	4(%rax), %eax
	movl	%eax, %edi
	call	close@PLT
	.loc 1 129 20 discriminator 1
	call	__errno_location@PLT
	.loc 1 129 20 discriminator 2
	movl	(%rax), %eax
	movl	%eax, %esi
	leaq	.LC2(%rip), %rax
	movq	%rax, %rdi
	movl	$0, %eax
	call	printf@PLT
	.loc 1 129 20
	jmp	.L6
.L21:
	.loc 1 129 20 discriminator 4
	movl	-30776(%rbp), %eax
.LBE5:
	.loc 1 129 18 is_stmt 1 discriminator 4
	movl	%eax, -30792(%rbp)
	.loc 1 130 9
	leaq	.LC16(%rip), %rax
	movq	%rax, %rdi
	movl	$0, %eax
	call	printf@PLT
	.loc 1 131 9
	leaq	.LC17(%rip), %rax
	movq	%rax, %rdi
	movl	$0, %eax
	call	printf@PLT
	.loc 1 132 9
	movq	-30768(%rbp), %rax
	movq	%rax, %rsi
	leaq	.LC18(%rip), %rax
	movq	%rax, %rdi
	movl	$0, %eax
	call	printf@PLT
	.loc 1 133 68
	movq	-30816(%rbp), %rax
	movzbl	1(%rax), %eax
	.loc 1 133 9
	movzbl	%al, %eax
	movl	%eax, %esi
	leaq	.LC19(%rip), %rax
	movq	%rax, %rdi
	movl	$0, %eax
	call	printf@PLT
	.loc 1 134 9
	leaq	.LC20(%rip), %rax
	movq	%rax, %rdi
	movl	$0, %eax
	call	printf@PLT
	jmp	.L6
.L25:
	.loc 1 90 9
	nop
.L6:
	.loc 1 138 18
	movq	-30768(%rbp), %rax
	.loc 1 138 8
	testq	%rax, %rax
	je	.L22
	.loc 1 139 9
	movq	-30768(%rbp), %rax
	movq	%rax, %rdi
	call	free@PLT
.L22:
	.loc 1 141 8
	cmpq	$0, -30760(%rbp)
	je	.L26
	.loc 1 142 9
	movq	-30760(%rbp), %rax
	movq	%rax, %rdi
	call	fclose@PLT
.L26:
	.loc 1 144 1
	nop
	movq	-24(%rbp), %rax
	subq	%fs:40, %rax
	je	.L24
	call	__stack_chk_fail@PLT
.L24:
	movq	-8(%rbp), %rbx
	leave
	.cfi_def_cfa 7, 8
	ret
	.cfi_endproc
.LFE321:
	.size	put_command, .-put_command
	.section	.rodata
	.align 8
.LC21:
	.string	"\033[31m[-] Too large filename size \n\033[0m"
.LC22:
	.string	"rb"
.LC23:
	.string	"\033[31m[-] Reading failed \n\033[0m"
.LC24:
	.string	"%02x "
.LC25:
	.string	"send bytes:%d\n"
	.align 8
.LC26:
	.string	"\033[32m    GET FILE SUCCESSFUL\n\033[0m"
	.align 8
.LC27:
	.string	"\033[32m    CHUNK: %d sent !\n\033[0m"
.LC28:
	.string	"\033[31m    GET FAILED\n\033[0m"
	.text
	.globl	get_command
	.type	get_command, @function
get_command:
.LFB322:
	.loc 1 147 1
	.cfi_startproc
	endbr64
	pushq	%rbp
	.cfi_def_cfa_offset 16
	.cfi_offset 6, -16
	movq	%rsp, %rbp
	.cfi_def_cfa_register 6
	leaq	-61440(%rsp), %r11
.LPSRL1:
	subq	$4096, %rsp
	orq	$0, (%rsp)
	cmpq	%r11, %rsp
	jne	.LPSRL1
	addq	$-128, %rsp
	movq	%rdi, -61560(%rbp)
	movq	%rsi, -61568(%rbp)
	.loc 1 147 1
	movq	%fs:40, %rax
	movq	%rax, -8(%rbp)
	xorl	%eax, %eax
	.loc 1 148 9
	movl	$0, -61540(%rbp)
	.loc 1 151 11
	movq	$0, -61504(%rbp)
	.loc 1 152 11
	movq	$0, -61496(%rbp)
	.loc 1 154 5
	leaq	-61456(%rbp), %rax
	movl	$30720, %edx
	movl	$0, %esi
	movq	%rax, %rdi
	call	memset@PLT
	.loc 1 155 22
	movq	-61568(%rbp), %rax
	movl	2(%rax), %eax
	.loc 1 155 7
	cmpl	$30720, %eax
	jbe	.L28
	.loc 1 156 9
	leaq	.LC21(%rip), %rax
	movq	%rax, %rdi
	movl	$0, %eax
	call	printf@PLT
	.loc 1 157 9
	jmp	.L29
.L28:
.LBB6:
	.loc 1 159 16
	movq	-61568(%rbp), %rax
	movl	2(%rax), %eax
	movl	%eax, %edx
	movq	-61560(%rbp), %rax
	movl	4(%rax), %eax
	leaq	-61456(%rbp), %rsi
	movl	$0, %ecx
	movl	%eax, %edi
	call	recv@PLT
	.loc 1 159 16 is_stmt 0 discriminator 1
	movl	%eax, -61536(%rbp)
	cmpl	$0, -61536(%rbp)
	jns	.L30
	call	__errno_location@PLT
	movl	(%rax), %eax
	movl	%eax, %esi
	leaq	.LC1(%rip), %rax
	movq	%rax, %rdi
	movl	$0, %eax
	call	printf@PLT
	.loc 1 159 16 discriminator 2
	movq	-61560(%rbp), %rax
	movl	4(%rax), %eax
	movl	%eax, %edi
	call	close@PLT
	.loc 1 159 16
	jmp	.L29
.L30:
	.loc 1 159 16 discriminator 2
	cmpl	$0, -61536(%rbp)
	jne	.L31
	.loc 1 159 16 discriminator 3
	movq	-61560(%rbp), %rax
	movl	4(%rax), %eax
	movl	%eax, %edi
	call	close@PLT
	.loc 1 159 16 discriminator 1
	call	__errno_location@PLT
	.loc 1 159 16 discriminator 2
	movl	(%rax), %eax
	movl	%eax, %esi
	leaq	.LC2(%rip), %rax
	movq	%rax, %rdi
	movl	$0, %eax
	call	printf@PLT
	.loc 1 159 16
	jmp	.L29
.L31:
	.loc 1 159 16 discriminator 4
	movl	-61536(%rbp), %eax
.LBE6:
	.loc 1 159 14 is_stmt 1 discriminator 4
	movl	%eax, -61540(%rbp)
	.loc 1 161 82
	movq	-61568(%rbp), %rax
	movzbl	1(%rax), %eax
	.loc 1 161 9
	movzbl	%al, %esi
	movq	-61560(%rbp), %rax
	movq	8(%rax), %rdx
	leaq	-61456(%rbp), %rcx
	leaq	-61504(%rbp), %rax
	movl	%esi, %r8d
	leaq	.LC3(%rip), %rsi
	movq	%rax, %rdi
	movl	$0, %eax
	call	asprintf@PLT
	.loc 1 161 8 discriminator 1
	testl	%eax, %eax
	js	.L54
	.loc 1 164 10
	movq	-61504(%rbp), %rax
	leaq	.LC22(%rip), %rdx
	movq	%rdx, %rsi
	movq	%rax, %rdi
	call	fopen@PLT
	movq	%rax, -61496(%rbp)
	.loc 1 165 8
	cmpq	$0, -61496(%rbp)
	jne	.L33
	.loc 1 167 9
	leaq	.LC23(%rip), %rax
	movq	%rax, %rdi
	movl	$0, %eax
	call	printf@PLT
.LBB7:
	.loc 1 168 20
	movq	-61560(%rbp), %rax
	movl	4(%rax), %eax
	movl	$0, %ecx
	movl	$8, %edx
	leaq	.LC15(%rip), %rsi
	movl	%eax, %edi
	call	send@PLT
	.loc 1 168 20 is_stmt 0 discriminator 1
	movl	%eax, -61508(%rbp)
	cmpl	$0, -61508(%rbp)
	jns	.L34
	call	__errno_location@PLT
	movl	(%rax), %eax
	movl	%eax, %esi
	leaq	.LC9(%rip), %rax
	movq	%rax, %rdi
	movl	$0, %eax
	call	printf@PLT
	.loc 1 168 20 discriminator 2
	movq	-61560(%rbp), %rax
	movl	4(%rax), %eax
	movl	%eax, %edi
	call	close@PLT
	.loc 1 168 20
	jmp	.L29
.L34:
	.loc 1 168 20 discriminator 2
	cmpl	$0, -61508(%rbp)
	jne	.L35
	.loc 1 168 20 discriminator 3
	movq	-61560(%rbp), %rax
	movl	4(%rax), %eax
	movl	%eax, %edi
	call	close@PLT
	.loc 1 168 20 discriminator 1
	call	__errno_location@PLT
	.loc 1 168 20 discriminator 2
	movl	(%rax), %eax
	movl	%eax, %esi
	leaq	.LC2(%rip), %rax
	movq	%rax, %rdi
	movl	$0, %eax
	call	printf@PLT
	.loc 1 168 20
	jmp	.L29
.L35:
	.loc 1 168 20 discriminator 4
	movl	-61508(%rbp), %eax
.LBE7:
	.loc 1 168 18 is_stmt 1 discriminator 4
	movl	%eax, -61540(%rbp)
	jmp	.L27
.L33:
	.loc 1 172 5
	movq	-61496(%rbp), %rax
	movl	$2, %edx
	movl	$0, %esi
	movq	%rax, %rdi
	call	fseek@PLT
	.loc 1 173 21
	movq	-61496(%rbp), %rax
	movq	%rax, %rdi
	call	ftell@PLT
	.loc 1 173 9 discriminator 1
	movl	%eax, -61532(%rbp)
	.loc 1 174 5
	movq	-61496(%rbp), %rax
	movl	$0, %edx
	movl	$0, %esi
	movq	%rax, %rdi
	call	fseek@PLT
.LBB8:
	.loc 1 177 16
	movq	-61560(%rbp), %rax
	movl	4(%rax), %eax
	movl	$0, %ecx
	movl	$7, %edx
	leaq	.LC8(%rip), %rsi
	movl	%eax, %edi
	call	send@PLT
	.loc 1 177 16 is_stmt 0 discriminator 1
	movl	%eax, -61528(%rbp)
	cmpl	$0, -61528(%rbp)
	jns	.L37
	call	__errno_location@PLT
	movl	(%rax), %eax
	movl	%eax, %esi
	leaq	.LC9(%rip), %rax
	movq	%rax, %rdi
	movl	$0, %eax
	call	printf@PLT
	.loc 1 177 16 discriminator 2
	movq	-61560(%rbp), %rax
	movl	4(%rax), %eax
	movl	%eax, %edi
	call	close@PLT
	.loc 1 177 16
	jmp	.L29
.L37:
	.loc 1 177 16 discriminator 2
	cmpl	$0, -61528(%rbp)
	jne	.L38
	.loc 1 177 16 discriminator 3
	movq	-61560(%rbp), %rax
	movl	4(%rax), %eax
	movl	%eax, %edi
	call	close@PLT
	.loc 1 177 16 discriminator 1
	call	__errno_location@PLT
	.loc 1 177 16 discriminator 2
	movl	(%rax), %eax
	movl	%eax, %esi
	leaq	.LC2(%rip), %rax
	movq	%rax, %rdi
	movl	$0, %eax
	call	printf@PLT
	.loc 1 177 16
	jmp	.L29
.L38:
	.loc 1 177 16 discriminator 4
	movl	-61528(%rbp), %eax
.LBE8:
	.loc 1 177 14 is_stmt 1 discriminator 4
	movl	%eax, -61540(%rbp)
.LBB9:
	.loc 1 179 16
	movq	-61560(%rbp), %rax
	movl	4(%rax), %eax
	leaq	-61456(%rbp), %rsi
	movl	$0, %ecx
	movl	$30720, %edx
	movl	%eax, %edi
	call	recv@PLT
	.loc 1 179 16 is_stmt 0 discriminator 1
	movl	%eax, -61524(%rbp)
	cmpl	$0, -61524(%rbp)
	jns	.L39
	call	__errno_location@PLT
	movl	(%rax), %eax
	movl	%eax, %esi
	leaq	.LC1(%rip), %rax
	movq	%rax, %rdi
	movl	$0, %eax
	call	printf@PLT
	.loc 1 179 16 discriminator 2
	movq	-61560(%rbp), %rax
	movl	4(%rax), %eax
	movl	%eax, %edi
	call	close@PLT
	.loc 1 179 16
	jmp	.L29
.L39:
	.loc 1 179 16 discriminator 2
	cmpl	$0, -61524(%rbp)
	jne	.L40
	.loc 1 179 16 discriminator 3
	movq	-61560(%rbp), %rax
	movl	4(%rax), %eax
	movl	%eax, %edi
	call	close@PLT
	.loc 1 179 16 discriminator 1
	call	__errno_location@PLT
	.loc 1 179 16 discriminator 2
	movl	(%rax), %eax
	movl	%eax, %esi
	leaq	.LC2(%rip), %rax
	movq	%rax, %rdi
	movl	$0, %eax
	call	printf@PLT
	.loc 1 179 16
	jmp	.L29
.L40:
	.loc 1 179 16 discriminator 4
	movl	-61524(%rbp), %eax
.LBE9:
	.loc 1 179 14 is_stmt 1 discriminator 4
	movl	%eax, -61540(%rbp)
	.loc 1 181 22
	movb	$0, -61466(%rbp)
	.loc 1 183 35
	movq	-61568(%rbp), %rax
	movzbl	1(%rax), %eax
	.loc 1 181 22
	movb	%al, -61465(%rbp)
	.loc 1 184 28
	movq	-61504(%rbp), %rax
	movq	%rax, %rdi
	call	strlen@PLT
	.loc 1 181 22
	movl	%eax, -61464(%rbp)
	movl	-61532(%rbp), %eax
	movl	%eax, -61460(%rbp)
.LBB10:
	.loc 1 188 16
	movq	-61560(%rbp), %rax
	movl	4(%rax), %eax
	leaq	-61466(%rbp), %rsi
	movl	$0, %ecx
	movl	$10, %edx
	movl	%eax, %edi
	call	send@PLT
	.loc 1 188 16 is_stmt 0 discriminator 1
	movl	%eax, -61520(%rbp)
	cmpl	$0, -61520(%rbp)
	jns	.L41
	call	__errno_location@PLT
	movl	(%rax), %eax
	movl	%eax, %esi
	leaq	.LC9(%rip), %rax
	movq	%rax, %rdi
	movl	$0, %eax
	call	printf@PLT
	.loc 1 188 16 discriminator 2
	movq	-61560(%rbp), %rax
	movl	4(%rax), %eax
	movl	%eax, %edi
	call	close@PLT
	.loc 1 188 16
	jmp	.L29
.L41:
	.loc 1 188 16 discriminator 2
	cmpl	$0, -61520(%rbp)
	jne	.L42
	.loc 1 188 16 discriminator 3
	movq	-61560(%rbp), %rax
	movl	4(%rax), %eax
	movl	%eax, %edi
	call	close@PLT
	.loc 1 188 16 discriminator 1
	call	__errno_location@PLT
	.loc 1 188 16 discriminator 2
	movl	(%rax), %eax
	movl	%eax, %esi
	leaq	.LC2(%rip), %rax
	movq	%rax, %rdi
	movl	$0, %eax
	call	printf@PLT
	.loc 1 188 16
	jmp	.L29
.L42:
	.loc 1 188 16 discriminator 4
	movl	-61520(%rbp), %eax
.LBE10:
	.loc 1 188 14 is_stmt 1 discriminator 4
	movl	%eax, -61540(%rbp)
	.loc 1 190 20
	leaq	-61466(%rbp), %rax
	movq	%rax, -61480(%rbp)
.LBB11:
	.loc 1 191 28
	movq	$0, -61488(%rbp)
	.loc 1 191 5
	jmp	.L43
.L44:
	.loc 1 193 30
	movq	-61480(%rbp), %rdx
	movq	-61488(%rbp), %rax
	addq	%rdx, %rax
	movzbl	(%rax), %eax
	.loc 1 193 9
	movzbl	%al, %eax
	movl	%eax, %esi
	leaq	.LC24(%rip), %rax
	movq	%rax, %rdi
	movl	$0, %eax
	call	printf@PLT
	.loc 1 191 66 discriminator 3
	addq	$1, -61488(%rbp)
.L43:
	.loc 1 191 37 discriminator 1
	cmpq	$9, -61488(%rbp)
	jbe	.L44
.LBE11:
	.loc 1 195 5
	movl	$10, %edi
	call	putchar@PLT
	.loc 1 197 11
	jmp	.L45
.L48:
.LBB12:
	.loc 1 199 20
	movl	-61540(%rbp), %eax
	movslq	%eax, %rdx
	movq	-61560(%rbp), %rax
	movl	4(%rax), %eax
	leaq	-30736(%rbp), %rsi
	movl	$0, %ecx
	movl	%eax, %edi
	call	send@PLT
	.loc 1 199 20 is_stmt 0 discriminator 1
	movl	%eax, -61512(%rbp)
	cmpl	$0, -61512(%rbp)
	jns	.L46
	call	__errno_location@PLT
	movl	(%rax), %eax
	movl	%eax, %esi
	leaq	.LC9(%rip), %rax
	movq	%rax, %rdi
	movl	$0, %eax
	call	printf@PLT
	.loc 1 199 20 discriminator 2
	movq	-61560(%rbp), %rax
	movl	4(%rax), %eax
	movl	%eax, %edi
	call	close@PLT
	.loc 1 199 20
	jmp	.L29
.L46:
	.loc 1 199 20 discriminator 2
	cmpl	$0, -61512(%rbp)
	jne	.L47
	.loc 1 199 20 discriminator 3
	movq	-61560(%rbp), %rax
	movl	4(%rax), %eax
	movl	%eax, %edi
	call	close@PLT
	.loc 1 199 20 discriminator 1
	call	__errno_location@PLT
	.loc 1 199 20 discriminator 2
	movl	(%rax), %eax
	movl	%eax, %esi
	leaq	.LC2(%rip), %rax
	movq	%rax, %rdi
	movl	$0, %eax
	call	printf@PLT
	.loc 1 199 20
	jmp	.L29
.L47:
	.loc 1 199 20 discriminator 4
	movl	-61512(%rbp), %eax
.LBE12:
	.loc 1 199 18 is_stmt 1 discriminator 4
	movl	%eax, -61540(%rbp)
	.loc 1 200 9
	movl	-61540(%rbp), %eax
	movl	%eax, %esi
	leaq	.LC25(%rip), %rax
	movq	%rax, %rdi
	movl	$0, %eax
	call	printf@PLT
	.loc 1 202 9
	leaq	-30736(%rbp), %rax
	movl	$30720, %edx
	movl	$0, %esi
	movq	%rax, %rdi
	call	memset@PLT
.L45:
	.loc 1 197 24
	movq	-61496(%rbp), %rdx
	leaq	-30736(%rbp), %rax
	movq	%rdx, %rcx
	movl	$30720, %edx
	movl	$1, %esi
	movq	%rax, %rdi
	call	fread@PLT
	.loc 1 197 22 discriminator 1
	movl	%eax, -61540(%rbp)
	.loc 1 197 74 discriminator 1
	cmpl	$0, -61540(%rbp)
	jg	.L48
	.loc 1 205 5
	leaq	-61456(%rbp), %rax
	movl	$30720, %edx
	movl	$0, %esi
	movq	%rax, %rdi
	call	memset@PLT
.LBB13:
	.loc 1 206 16
	movq	-61560(%rbp), %rax
	movl	4(%rax), %eax
	leaq	-61456(%rbp), %rsi
	movl	$0, %ecx
	movl	$30720, %edx
	movl	%eax, %edi
	call	recv@PLT
	.loc 1 206 16 is_stmt 0 discriminator 1
	movl	%eax, -61516(%rbp)
	cmpl	$0, -61516(%rbp)
	jns	.L49
	call	__errno_location@PLT
	movl	(%rax), %eax
	movl	%eax, %esi
	leaq	.LC1(%rip), %rax
	movq	%rax, %rdi
	movl	$0, %eax
	call	printf@PLT
	.loc 1 206 16 discriminator 2
	movq	-61560(%rbp), %rax
	movl	4(%rax), %eax
	movl	%eax, %edi
	call	close@PLT
	.loc 1 206 16
	jmp	.L29
.L49:
	.loc 1 206 16 discriminator 2
	cmpl	$0, -61516(%rbp)
	jne	.L50
	.loc 1 206 16 discriminator 3
	movq	-61560(%rbp), %rax
	movl	4(%rax), %eax
	movl	%eax, %edi
	call	close@PLT
	.loc 1 206 16 discriminator 1
	call	__errno_location@PLT
	.loc 1 206 16 discriminator 2
	movl	(%rax), %eax
	movl	%eax, %esi
	leaq	.LC2(%rip), %rax
	movq	%rax, %rdi
	movl	$0, %eax
	call	printf@PLT
	.loc 1 206 16
	jmp	.L29
.L50:
	.loc 1 206 16 discriminator 4
	movl	-61516(%rbp), %eax
.LBE13:
	.loc 1 206 14 is_stmt 1 discriminator 4
	movl	%eax, -61540(%rbp)
	.loc 1 207 9
	leaq	-61456(%rbp), %rax
	movl	$7, %edx
	leaq	.LC8(%rip), %rcx
	movq	%rcx, %rsi
	movq	%rax, %rdi
	call	strncmp@PLT
	.loc 1 207 8 discriminator 1
	testl	%eax, %eax
	jne	.L51
	.loc 1 209 9
	leaq	.LC10(%rip), %rax
	movq	%rax, %rdi
	movl	$0, %eax
	call	printf@PLT
	.loc 1 210 9
	leaq	.LC26(%rip), %rax
	movq	%rax, %rdi
	movl	$0, %eax
	call	printf@PLT
	.loc 1 211 9
	movq	-61504(%rbp), %rax
	movq	%rax, %rsi
	leaq	.LC12(%rip), %rax
	movq	%rax, %rdi
	movl	$0, %eax
	call	printf@PLT
	.loc 1 212 66
	movq	-61568(%rbp), %rax
	movzbl	1(%rax), %eax
	.loc 1 212 9
	movzbl	%al, %eax
	movl	%eax, %esi
	leaq	.LC27(%rip), %rax
	movq	%rax, %rdi
	movl	$0, %eax
	call	printf@PLT
	.loc 1 213 9
	leaq	.LC14(%rip), %rax
	movq	%rax, %rdi
	movl	$0, %eax
	call	printf@PLT
	jmp	.L29
.L51:
	.loc 1 217 9
	leaq	.LC16(%rip), %rax
	movq	%rax, %rdi
	movl	$0, %eax
	call	printf@PLT
	.loc 1 218 9
	leaq	.LC28(%rip), %rax
	movq	%rax, %rdi
	movl	$0, %eax
	call	printf@PLT
	.loc 1 219 9
	movq	-61504(%rbp), %rax
	movq	%rax, %rsi
	leaq	.LC18(%rip), %rax
	movq	%rax, %rdi
	movl	$0, %eax
	call	printf@PLT
	.loc 1 220 68
	movq	-61568(%rbp), %rax
	movzbl	1(%rax), %eax
	.loc 1 220 9
	movzbl	%al, %eax
	movl	%eax, %esi
	leaq	.LC19(%rip), %rax
	movq	%rax, %rdi
	movl	$0, %eax
	call	printf@PLT
	.loc 1 221 9
	leaq	.LC20(%rip), %rax
	movq	%rax, %rdi
	movl	$0, %eax
	call	printf@PLT
	jmp	.L29
.L54:
	.loc 1 162 9
	nop
.L29:
	.loc 1 225 5
	movq	-61504(%rbp), %rax
	movq	%rax, %rdi
	call	free@PLT
	.loc 1 226 8
	cmpq	$0, -61496(%rbp)
	je	.L27
	.loc 1 227 9
	movq	-61496(%rbp), %rax
	movq	%rax, %rdi
	call	fclose@PLT
.L27:
	.loc 1 229 1
	movq	-8(%rbp), %rax
	subq	%fs:40, %rax
	je	.L53
	call	__stack_chk_fail@PLT
.L53:
	leave
	.cfi_def_cfa 7, 8
	ret
	.cfi_endproc
.LFE322:
	.size	get_command, .-get_command
	.section	.rodata
	.align 8
.LC29:
	.string	"\033[36m\n=========================================\n\033[0m"
	.align 8
.LC30:
	.string	"\033[36m    PROCESSING LIST COMMAND\n\033[0m"
	.align 8
.LC31:
	.string	"\033[36m    Server directory: %s\n\033[0m"
	.align 8
.LC32:
	.string	"\033[36m=========================================\n\n\033[0m"
	.align 8
.LC33:
	.string	"\033[32m\n[+] Directory listing completed successfully\n\n\033[0m"
	.text
	.globl	ls_command
	.type	ls_command, @function
ls_command:
.LFB323:
	.loc 1 232 1
	.cfi_startproc
	endbr64
	pushq	%rbp
	.cfi_def_cfa_offset 16
	.cfi_offset 6, -16
	movq	%rsp, %rbp
	.cfi_def_cfa_register 6
	subq	$16, %rsp
	movq	%rdi, -8(%rbp)
	movq	%rsi, -16(%rbp)
	.loc 1 233 5
	leaq	.LC29(%rip), %rax
	movq	%rax, %rdi
	movl	$0, %eax
	call	printf@PLT
	.loc 1 234 5
	leaq	.LC30(%rip), %rax
	movq	%rax, %rdi
	movl	$0, %eax
	call	printf@PLT
	.loc 1 235 5
	movq	-8(%rbp), %rax
	movq	8(%rax), %rax
	movq	%rax, %rsi
	leaq	.LC31(%rip), %rax
	movq	%rax, %rdi
	movl	$0, %eax
	call	printf@PLT
	.loc 1 236 5
	leaq	.LC32(%rip), %rax
	movq	%rax, %rdi
	movl	$0, %eax
	call	printf@PLT
	.loc 1 240 26
	movq	-8(%rbp), %rax
	movq	8(%rax), %rdx
	.loc 1 240 5
	movq	-8(%rbp), %rax
	movq	%rdx, %rsi
	movq	%rax, %rdi
	call	list_directory
	.loc 1 245 5
	movq	-8(%rbp), %rax
	movl	4(%rax), %eax
	movl	$0, %ecx
	movl	$7, %edx
	leaq	.LC8(%rip), %rsi
	movl	%eax, %edi
	call	send@PLT
	.loc 1 247 5
	leaq	.LC33(%rip), %rax
	movq	%rax, %rdi
	movl	$0, %eax
	call	printf@PLT
	.loc 1 248 1
	nop
	leave
	.cfi_def_cfa 7, 8
	ret
	.cfi_endproc
.LFE323:
	.size	ls_command, .-ls_command
	.section	.rodata
	.align 8
.LC34:
	.string	"\033[36m[*] Scanning directory: %s\n\033[0m"
	.align 8
.LC35:
	.string	"\033[31m[-] Failed to open directory: %s\n\033[0m"
.LC36:
	.string	"."
.LC37:
	.string	".."
.LC38:
	.string	"%s/%s"
	.align 8
.LC39:
	.string	"\033[31m[-] Failed to get file status: %s\n\033[0m"
.LC40:
	.string	"%s"
	.align 8
.LC41:
	.string	"\033[32m[+] Found chunk file: %s (Chunk ID: %d)\n\033[0m"
	.text
	.globl	list_directory
	.type	list_directory, @function
list_directory:
.LFB324:
	.loc 1 257 1
	.cfi_startproc
	endbr64
	pushq	%rbp
	.cfi_def_cfa_offset 16
	.cfi_offset 6, -16
	movq	%rsp, %rbp
	.cfi_def_cfa_register 6
	pushq	%rbx
	subq	$4096, %rsp
	orq	$0, (%rsp)
	subq	$4096, %rsp
	orq	$0, (%rsp)
	subq	$232, %rsp
	.cfi_offset 3, -24
	movq	%rdi, -8424(%rbp)
	movq	%rsi, -8432(%rbp)
	.loc 1 257 1
	movq	%fs:40, %rax
	movq	%rax, -24(%rbp)
	xorl	%eax, %eax
	.loc 1 262 5
	movq	-8432(%rbp), %rax
	movq	%rax, %rsi
	leaq	.LC34(%rip), %rax
	movq	%rax, %rdi
	movl	$0, %eax
	call	printf@PLT
	.loc 1 264 10
	movq	-8432(%rbp), %rax
	movq	%rax, %rdi
	call	opendir@PLT
	movq	%rax, -8408(%rbp)
	.loc 1 265 8
	cmpq	$0, -8408(%rbp)
	jne	.L59
	.loc 1 267 9
	movq	stderr(%rip), %rax
	movq	-8432(%rbp), %rdx
	leaq	.LC35(%rip), %rcx
	movq	%rcx, %rsi
	movq	%rax, %rdi
	movl	$0, %eax
	call	fprintf@PLT
	.loc 1 268 84
	call	__errno_location@PLT
	.loc 1 268 9 discriminator 1
	movl	(%rax), %ebx
	.loc 1 268 76 discriminator 1
	call	__errno_location@PLT
	.loc 1 268 9 discriminator 2
	movl	(%rax), %eax
	movl	%eax, %edi
	call	strerror@PLT
	movq	%rax, %rdx
	.loc 1 268 9 is_stmt 0 discriminator 3
	movq	stderr(%rip), %rax
	movl	%ebx, %ecx
	leaq	.LC6(%rip), %rsi
	movq	%rax, %rdi
	movl	$0, %eax
	call	fprintf@PLT
	jmp	.L56
.L66:
.LBB14:
	.loc 1 275 25 is_stmt 1
	movq	-8400(%rbp), %rax
	addq	$19, %rax
	.loc 1 275 13
	leaq	.LC36(%rip), %rdx
	movq	%rdx, %rsi
	movq	%rax, %rdi
	call	strcmp@PLT
	.loc 1 275 12 discriminator 1
	testl	%eax, %eax
	je	.L68
	.loc 1 275 60 discriminator 2
	movq	-8400(%rbp), %rax
	addq	$19, %rax
	.loc 1 275 48 discriminator 2
	leaq	.LC37(%rip), %rdx
	movq	%rdx, %rsi
	movq	%rax, %rdi
	call	strcmp@PLT
	.loc 1 275 45 discriminator 1
	testl	%eax, %eax
	je	.L68
	.loc 1 282 75
	movq	-8400(%rbp), %rax
	leaq	19(%rax), %rcx
	.loc 1 282 9
	movq	-8432(%rbp), %rdx
	leaq	-8224(%rbp), %rax
	movq	%rcx, %r8
	movq	%rdx, %rcx
	leaq	.LC38(%rip), %rdx
	movl	$4096, %esi
	movq	%rax, %rdi
	movl	$0, %eax
	call	snprintf@PLT
	.loc 1 285 13
	leaq	-8368(%rbp), %rdx
	leaq	-8224(%rbp), %rax
	movq	%rdx, %rsi
	movq	%rax, %rdi
	call	stat@PLT
	.loc 1 285 12 discriminator 1
	testl	%eax, %eax
	jns	.L63
	.loc 1 287 13
	movq	stderr(%rip), %rax
	leaq	-8224(%rbp), %rdx
	leaq	.LC39(%rip), %rcx
	movq	%rcx, %rsi
	movq	%rax, %rdi
	movl	$0, %eax
	call	fprintf@PLT
	.loc 1 288 13
	jmp	.L59
.L63:
	.loc 1 291 13
	movl	-8344(%rbp), %eax
	andl	$61440, %eax
	.loc 1 291 12
	cmpl	$32768, %eax
	jne	.L59
.LBB15:
	.loc 1 294 50
	movq	-8400(%rbp), %rax
	addq	$19, %rax
	.loc 1 294 37
	movl	$95, %esi
	movq	%rax, %rdi
	call	strrchr@PLT
	movq	%rax, -8392(%rbp)
	.loc 1 295 16
	cmpq	$0, -8392(%rbp)
	je	.L59
	.loc 1 295 44 discriminator 1
	call	__ctype_b_loc@PLT
	movq	(%rax), %rax
	movq	-8392(%rbp), %rdx
	addq	$1, %rdx
	movzbl	(%rdx), %edx
	movsbq	%dl, %rdx
	addq	%rdx, %rdx
	addq	%rdx, %rax
	movzwl	(%rax), %eax
	movzwl	%ax, %eax
	andl	$2048, %eax
	.loc 1 295 41 discriminator 1
	testl	%eax, %eax
	je	.L59
.LBB16:
	.loc 1 301 67
	movq	-8400(%rbp), %rax
	leaq	19(%rax), %rdx
	.loc 1 301 17
	leaq	-4128(%rbp), %rax
	movq	%rdx, %rcx
	leaq	.LC40(%rip), %rdx
	movl	$4096, %esi
	movq	%rax, %rdi
	movl	$0, %eax
	call	snprintf@PLT
	.loc 1 304 53
	movq	-8392(%rbp), %rax
	addq	$1, %rax
	.loc 1 304 32
	movq	%rax, %rdi
	call	atoi@PLT
	movl	%eax, -8412(%rbp)
	.loc 1 306 17
	movl	-8412(%rbp), %edx
	leaq	-4128(%rbp), %rax
	movq	%rax, %rsi
	leaq	.LC41(%rip), %rax
	movq	%rax, %rdi
	movl	$0, %eax
	call	printf@PLT
	.loc 1 309 34
	movb	$3, -8378(%rbp)
	movl	-8412(%rbp), %eax
	movb	%al, -8377(%rbp)
	.loc 1 312 40
	leaq	-4128(%rbp), %rax
	movq	%rax, %rdi
	call	strlen@PLT
	.loc 1 309 34
	movl	%eax, -8376(%rbp)
	movl	$0, -8372(%rbp)
	.loc 1 316 17
	movq	-8424(%rbp), %rax
	movl	4(%rax), %eax
	leaq	-8378(%rbp), %rsi
	movl	$0, %ecx
	movl	$10, %edx
	movl	%eax, %edi
	call	send@PLT
	.loc 1 317 72
	movl	-8376(%rbp), %eax
	.loc 1 317 17
	movl	%eax, %edx
	movq	-8424(%rbp), %rax
	movl	4(%rax), %eax
	leaq	-4128(%rbp), %rsi
	movl	$0, %ecx
	movl	%eax, %edi
	call	send@PLT
	jmp	.L59
.L68:
.LBE16:
.LBE15:
	.loc 1 277 13
	nop
.L59:
.LBE14:
	.loc 1 272 21
	movq	-8408(%rbp), %rax
	movq	%rax, %rdi
	call	readdir@PLT
	movq	%rax, -8400(%rbp)
	.loc 1 272 34 discriminator 1
	cmpq	$0, -8400(%rbp)
	jne	.L66
	.loc 1 322 5
	movq	-8408(%rbp), %rax
	movq	%rax, %rdi
	call	closedir@PLT
.L56:
	.loc 1 323 1
	movq	-24(%rbp), %rax
	subq	%fs:40, %rax
	je	.L67
	call	__stack_chk_fail@PLT
.L67:
	movq	-8(%rbp), %rbx
	leave
	.cfi_def_cfa 7, 8
	ret
	.cfi_endproc
.LFE324:
	.size	list_directory, .-list_directory
	.section	.rodata
	.align 8
.LC42:
	.string	"\033[32m    DELETE FILE SUCCESSFUL\n\033[0m"
	.align 8
.LC43:
	.string	"\033[32m    CHUNK: %d deleted !\n\033[0m"
.LC44:
	.string	"\033[31m    DELETE FAILED\n\033[0m"
	.align 8
.LC45:
	.string	"\033[31m    CHUNK: %d deleted !\n\033[0m"
	.text
	.globl	delete_command
	.type	delete_command, @function
delete_command:
.LFB325:
	.loc 1 326 1
	.cfi_startproc
	endbr64
	pushq	%rbp
	.cfi_def_cfa_offset 16
	.cfi_offset 6, -16
	movq	%rsp, %rbp
	.cfi_def_cfa_register 6
	leaq	-28672(%rsp), %r11
.LPSRL2:
	subq	$4096, %rsp
	orq	$0, (%rsp)
	cmpq	%r11, %rsp
	jne	.LPSRL2
	subq	$2112, %rsp
	movq	%rdi, -30776(%rbp)
	movq	%rsi, -30784(%rbp)
	.loc 1 326 1
	movq	%fs:40, %rax
	movq	%rax, -8(%rbp)
	xorl	%eax, %eax
	.loc 1 328 11
	movq	$0, -30752(%rbp)
	.loc 1 329 11
	movq	$0, -30744(%rbp)
	.loc 1 331 5
	leaq	-30736(%rbp), %rax
	movl	$30720, %edx
	movl	$0, %esi
	movq	%rax, %rdi
	call	memset@PLT
	.loc 1 332 22
	movq	-30784(%rbp), %rax
	movl	2(%rax), %eax
	.loc 1 332 7
	cmpl	$30720, %eax
	jbe	.L70
	.loc 1 333 9
	leaq	.LC0(%rip), %rax
	movq	%rax, %rdi
	call	puts@PLT
	.loc 1 334 9
	jmp	.L71
.L70:
.LBB17:
	.loc 1 336 5
	movq	-30784(%rbp), %rax
	movl	2(%rax), %eax
	movl	%eax, %edx
	movq	-30776(%rbp), %rax
	movl	4(%rax), %eax
	leaq	-30736(%rbp), %rsi
	movl	$0, %ecx
	movl	%eax, %edi
	call	recv@PLT
	.loc 1 336 5 is_stmt 0 discriminator 1
	movl	%eax, -30756(%rbp)
	cmpl	$0, -30756(%rbp)
	jns	.L72
	call	__errno_location@PLT
	movl	(%rax), %eax
	movl	%eax, %esi
	leaq	.LC1(%rip), %rax
	movq	%rax, %rdi
	movl	$0, %eax
	call	printf@PLT
	.loc 1 336 5 discriminator 2
	movq	-30776(%rbp), %rax
	movl	4(%rax), %eax
	movl	%eax, %edi
	call	close@PLT
	.loc 1 336 5
	jmp	.L71
.L72:
	.loc 1 336 5 discriminator 2
	cmpl	$0, -30756(%rbp)
	jne	.L73
	.loc 1 336 5 discriminator 3
	movq	-30776(%rbp), %rax
	movl	4(%rax), %eax
	movl	%eax, %edi
	call	close@PLT
	.loc 1 336 5 discriminator 1
	call	__errno_location@PLT
	.loc 1 336 5 discriminator 2
	movl	(%rax), %eax
	movl	%eax, %esi
	leaq	.LC2(%rip), %rax
	movq	%rax, %rdi
	movl	$0, %eax
	call	printf@PLT
	.loc 1 336 5
	jmp	.L71
.L73:
.LBE17:
	.loc 1 338 82 is_stmt 1
	movq	-30784(%rbp), %rax
	movzbl	1(%rax), %eax
	.loc 1 338 9
	movzbl	%al, %esi
	movq	-30776(%rbp), %rax
	movq	8(%rax), %rdx
	leaq	-30736(%rbp), %rcx
	leaq	-30752(%rbp), %rax
	movl	%esi, %r8d
	leaq	.LC3(%rip), %rsi
	movq	%rax, %rdi
	movl	$0, %eax
	call	asprintf@PLT
	.loc 1 338 8 discriminator 1
	testl	%eax, %eax
	js	.L80
	.loc 1 342 9
	movq	-30752(%rbp), %rax
	movl	$0, %esi
	movq	%rax, %rdi
	call	access@PLT
	.loc 1 342 8 discriminator 1
	testl	%eax, %eax
	je	.L75
	.loc 1 343 9
	movq	-30776(%rbp), %rax
	movl	4(%rax), %eax
	movl	$0, %ecx
	movl	$8, %edx
	leaq	.LC15(%rip), %rsi
	movl	%eax, %edi
	call	send@PLT
	.loc 1 344 9
	jmp	.L71
.L75:
	.loc 1 347 9
	movq	-30752(%rbp), %rax
	movq	%rax, %rdi
	call	remove@PLT
	.loc 1 347 8 discriminator 1
	testl	%eax, %eax
	js	.L76
	.loc 1 349 9
	leaq	.LC10(%rip), %rax
	movq	%rax, %rdi
	movl	$0, %eax
	call	printf@PLT
	.loc 1 350 9
	leaq	.LC42(%rip), %rax
	movq	%rax, %rdi
	movl	$0, %eax
	call	printf@PLT
	.loc 1 351 9
	movq	-30752(%rbp), %rax
	movq	%rax, %rsi
	leaq	.LC12(%rip), %rax
	movq	%rax, %rdi
	movl	$0, %eax
	call	printf@PLT
	.loc 1 352 69
	movq	-30784(%rbp), %rax
	movzbl	1(%rax), %eax
	.loc 1 352 9
	movzbl	%al, %eax
	movl	%eax, %esi
	leaq	.LC43(%rip), %rax
	movq	%rax, %rdi
	movl	$0, %eax
	call	printf@PLT
	.loc 1 353 9
	leaq	.LC14(%rip), %rax
	movq	%rax, %rdi
	movl	$0, %eax
	call	printf@PLT
	.loc 1 354 9
	movq	-30776(%rbp), %rax
	movl	4(%rax), %eax
	movl	$0, %ecx
	movl	$7, %edx
	leaq	.LC8(%rip), %rsi
	movl	%eax, %edi
	call	send@PLT
	jmp	.L71
.L76:
	.loc 1 358 9
	leaq	.LC16(%rip), %rax
	movq	%rax, %rdi
	movl	$0, %eax
	call	printf@PLT
	.loc 1 359 9
	leaq	.LC44(%rip), %rax
	movq	%rax, %rdi
	movl	$0, %eax
	call	printf@PLT
	.loc 1 360 9
	movq	-30752(%rbp), %rax
	movq	%rax, %rsi
	leaq	.LC18(%rip), %rax
	movq	%rax, %rdi
	movl	$0, %eax
	call	printf@PLT
	.loc 1 361 69
	movq	-30784(%rbp), %rax
	movzbl	1(%rax), %eax
	.loc 1 361 9
	movzbl	%al, %eax
	movl	%eax, %esi
	leaq	.LC45(%rip), %rax
	movq	%rax, %rdi
	movl	$0, %eax
	call	printf@PLT
	.loc 1 362 9
	leaq	.LC20(%rip), %rax
	movq	%rax, %rdi
	movl	$0, %eax
	call	printf@PLT
	.loc 1 363 9
	movq	-30776(%rbp), %rax
	movl	4(%rax), %eax
	movl	$0, %ecx
	movl	$8, %edx
	leaq	.LC15(%rip), %rsi
	movl	%eax, %edi
	call	send@PLT
	jmp	.L71
.L80:
	.loc 1 339 9
	nop
.L71:
	.loc 1 367 18
	movq	-30752(%rbp), %rax
	.loc 1 367 8
	testq	%rax, %rax
	je	.L77
	.loc 1 368 9
	movq	-30752(%rbp), %rax
	movq	%rax, %rdi
	call	free@PLT
.L77:
	.loc 1 370 8
	cmpq	$0, -30744(%rbp)
	je	.L81
	.loc 1 371 9
	movq	-30744(%rbp), %rax
	movq	%rax, %rdi
	call	fclose@PLT
.L81:
	.loc 1 373 1
	nop
	movq	-8(%rbp), %rax
	subq	%fs:40, %rax
	je	.L79
	call	__stack_chk_fail@PLT
.L79:
	leave
	.cfi_def_cfa 7, 8
	ret
	.cfi_endproc
.LFE325:
	.size	delete_command, .-delete_command
	.section	.rodata
	.align 8
.LC46:
	.string	"\033[31m[-] (%d) Select syscall failed with error: %d (%s)\n\033[0m"
	.align 8
.LC47:
	.string	"\033[33m\n[!] (%d) CONNECTION TIMEOUT:\n[-] Client connection idle for %d seconds\n------------------------------------------------------------\n\033[0m"
	.align 8
.LC48:
	.string	"\033[35m\n=========================================\n\033[0m"
.LC49:
	.string	"SERVER INFO"
.LC50:
	.string	"UNKNOWN"
.LC51:
	.string	"DELETE"
.LC52:
	.string	"LIST"
.LC53:
	.string	"GET"
.LC54:
	.string	"PUT"
.LC55:
	.string	"\033[35m    OPERATION: %s\n\033[0m"
	.align 8
.LC56:
	.string	"\033[35m    CHUNK NUMBER: %d \n\033[0m"
	.align 8
.LC57:
	.string	"\033[35m    FILENAME LENGTH: %d \n\033[0m"
	.align 8
.LC58:
	.string	"\033[35m    DATA LENGTH: %d \n\033[0m"
	.align 8
.LC59:
	.string	"\033[35m=========================================\n\033[0m"
	.text
	.globl	handle_req
	.type	handle_req, @function
handle_req:
.LFB326:
	.loc 1 393 1
	.cfi_startproc
	endbr64
	pushq	%rbp
	.cfi_def_cfa_offset 16
	.cfi_offset 6, -16
	movq	%rsp, %rbp
	.cfi_def_cfa_register 6
	pushq	%r12
	pushq	%rbx
	leaq	-28672(%rsp), %r11
.LPSRL3:
	subq	$4096, %rsp
	orq	$0, (%rsp)
	cmpq	%r11, %rsp
	jne	.LPSRL3
	subq	$2272, %rsp
	.cfi_offset 12, -24
	.cfi_offset 3, -32
	movq	%rdi, -30952(%rbp)
	.loc 1 393 1
	movq	%fs:40, %rax
	movq	%rax, -24(%rbp)
	xorl	%eax, %eax
.L109:
.LBB18:
.LBB19:
	.loc 1 399 9
	leaq	-30880(%rbp), %rax
	movq	%rax, -30920(%rbp)
	movl	$0, -30932(%rbp)
	jmp	.L83
.L84:
	.loc 1 399 9 is_stmt 0 discriminator 3
	movq	-30920(%rbp), %rax
	movl	-30932(%rbp), %edx
	movq	$0, (%rax,%rdx,8)
	addl	$1, -30932(%rbp)
.L83:
	.loc 1 399 9 discriminator 1
	cmpl	$15, -30932(%rbp)
	jbe	.L84
.LBE19:
	.loc 1 400 9 is_stmt 1
	movq	-30952(%rbp), %rax
	movl	4(%rax), %eax
	leal	63(%rax), %edx
	testl	%eax, %eax
	cmovs	%edx, %eax
	sarl	$6, %eax
	movl	%eax, %esi
	movslq	%esi, %rax
	movq	-30880(%rbp,%rax,8), %rdx
	movq	-30952(%rbp), %rax
	movl	4(%rax), %eax
	andl	$63, %eax
	movl	$1, %edi
	movl	%eax, %ecx
	salq	%cl, %rdi
	movq	%rdi, %rax
	orq	%rax, %rdx
	movslq	%esi, %rax
	movq	%rdx, -30880(%rbp,%rax,8)
	.loc 1 403 24
	movq	$10, -30896(%rbp)
	movq	$0, -30888(%rbp)
	.loc 1 406 38
	movq	-30952(%rbp), %rax
	movl	4(%rax), %eax
	.loc 1 406 29
	leal	1(%rax), %edi
	leaq	-30896(%rbp), %rdx
	leaq	-30880(%rbp), %rax
	movq	%rdx, %r8
	movl	$0, %ecx
	movl	$0, %edx
	movq	%rax, %rsi
	call	select@PLT
	movl	%eax, -30928(%rbp)
	.loc 1 408 12
	cmpl	$0, -30928(%rbp)
	jns	.L85
	.loc 1 411 47
	call	__errno_location@PLT
	.loc 1 410 13
	movl	(%rax), %eax
	movl	%eax, %edi
	call	strerror@PLT
	movq	%rax, %r12
	.loc 1 411 31
	call	__errno_location@PLT
	.loc 1 410 13
	movl	(%rax), %ebx
	call	gettid@PLT
	movl	%eax, %edx
	.loc 1 410 13 is_stmt 0 discriminator 2
	movq	stderr(%rip), %rax
	movq	%r12, %r8
	movl	%ebx, %ecx
	leaq	.LC46(%rip), %rsi
	movq	%rax, %rdi
	movl	$0, %eax
	call	fprintf@PLT
	.loc 1 412 13 is_stmt 1
	jmp	.L108
.L85:
	.loc 1 416 17
	cmpl	$0, -30928(%rbp)
	jne	.L87
	.loc 1 418 13
	call	gettid@PLT
	.loc 1 418 13 is_stmt 0 discriminator 1
	movl	$10, %edx
	movl	%eax, %esi
	leaq	.LC47(%rip), %rax
	movq	%rax, %rdi
	movl	$0, %eax
	call	printf@PLT
	.loc 1 422 13 is_stmt 1
	jmp	.L108
.L87:
	.loc 1 426 18
	movq	-30952(%rbp), %rax
	movl	4(%rax), %eax
	leal	63(%rax), %edx
	testl	%eax, %eax
	cmovs	%edx, %eax
	sarl	$6, %eax
	cltq
	movq	-30880(%rbp,%rax,8), %rdx
	movq	-30952(%rbp), %rax
	movl	4(%rax), %eax
	andl	$63, %eax
	movl	$1, %esi
	movl	%eax, %ecx
	salq	%cl, %rsi
	movq	%rsi, %rax
	andq	%rdx, %rax
	.loc 1 426 17
	testq	%rax, %rax
	je	.L109
.LBB20:
	.loc 1 428 13
	leaq	-30752(%rbp), %rax
	movl	$30720, %edx
	movl	$0, %esi
	movq	%rax, %rdi
	call	memset@PLT
	.loc 1 431 13
	leaq	-30906(%rbp), %rax
	movl	$10, %edx
	movl	$0, %esi
	movq	%rax, %rdi
	call	memset@PLT
.LBB21:
	.loc 1 433 13
	movq	-30952(%rbp), %rax
	movl	4(%rax), %eax
	leaq	-30906(%rbp), %rsi
	movl	$0, %ecx
	movl	$10, %edx
	movl	%eax, %edi
	call	recv@PLT
	.loc 1 433 13 is_stmt 0 discriminator 1
	movl	%eax, -30924(%rbp)
	cmpl	$0, -30924(%rbp)
	jns	.L89
	call	__errno_location@PLT
	movl	(%rax), %eax
	movl	%eax, %esi
	leaq	.LC1(%rip), %rax
	movq	%rax, %rdi
	movl	$0, %eax
	call	printf@PLT
	.loc 1 433 13 discriminator 2
	movq	-30952(%rbp), %rax
	movl	4(%rax), %eax
	movl	%eax, %edi
	call	close@PLT
	.loc 1 433 13
	jmp	.L90
.L89:
	.loc 1 433 13 discriminator 2
	cmpl	$0, -30924(%rbp)
	jne	.L91
	.loc 1 433 13 discriminator 4
	movq	-30952(%rbp), %rax
	movl	4(%rax), %eax
	movl	%eax, %edi
	call	close@PLT
	.loc 1 433 13 discriminator 1
	call	__errno_location@PLT
	.loc 1 433 13 discriminator 2
	movl	(%rax), %eax
	movl	%eax, %esi
	leaq	.LC2(%rip), %rax
	movq	%rax, %rdi
	movl	$0, %eax
	call	printf@PLT
	.loc 1 433 13
	jmp	.L90
.L91:
.LBE21:
	.loc 1 435 13 is_stmt 1
	leaq	.LC48(%rip), %rax
	movq	%rax, %rdi
	movl	$0, %eax
	call	printf@PLT
	.loc 1 437 34
	movzbl	-30906(%rbp), %eax
	.loc 1 436 13
	cmpb	$1, %al
	je	.L92
	.loc 1 437 74
	movzbl	-30906(%rbp), %eax
	.loc 1 438 56
	testb	%al, %al
	je	.L93
	.loc 1 438 72 discriminator 1
	movzbl	-30906(%rbp), %eax
	.loc 1 439 56
	cmpb	$3, %al
	je	.L94
	.loc 1 439 72 discriminator 1
	movzbl	-30906(%rbp), %eax
	.loc 1 440 56
	cmpb	$2, %al
	je	.L95
	.loc 1 440 72 discriminator 1
	movzbl	-30906(%rbp), %eax
	.loc 1 441 96
	cmpb	$5, %al
	jne	.L96
	.loc 1 441 96 is_stmt 0 discriminator 1
	leaq	.LC49(%rip), %rax
	jmp	.L101
.L96:
	.loc 1 441 96 discriminator 2
	leaq	.LC50(%rip), %rax
	jmp	.L101
.L95:
	.loc 1 440 56 is_stmt 1 discriminator 2
	leaq	.LC51(%rip), %rax
	jmp	.L101
.L94:
	.loc 1 439 56 discriminator 2
	leaq	.LC52(%rip), %rax
	jmp	.L101
.L93:
	.loc 1 438 56 discriminator 2
	leaq	.LC53(%rip), %rax
	jmp	.L101
.L92:
	.loc 1 436 13 discriminator 1
	leaq	.LC54(%rip), %rax
.L101:
	.loc 1 436 13 is_stmt 0 discriminator 3
	movq	%rax, %rsi
	leaq	.LC55(%rip), %rax
	movq	%rax, %rdi
	movl	$0, %eax
	call	printf@PLT
	.loc 1 442 71 is_stmt 1
	movzbl	-30905(%rbp), %eax
	.loc 1 442 13
	movzbl	%al, %eax
	movl	%eax, %esi
	leaq	.LC56(%rip), %rax
	movq	%rax, %rdi
	movl	$0, %eax
	call	printf@PLT
	.loc 1 443 13
	movl	-30904(%rbp), %eax
	movl	%eax, %esi
	leaq	.LC57(%rip), %rax
	movq	%rax, %rdi
	movl	$0, %eax
	call	printf@PLT
	.loc 1 444 13
	movl	-30900(%rbp), %eax
	movl	%eax, %esi
	leaq	.LC58(%rip), %rax
	movq	%rax, %rdi
	movl	$0, %eax
	call	printf@PLT
	.loc 1 445 13
	leaq	.LC59(%rip), %rax
	movq	%rax, %rdi
	movl	$0, %eax
	call	printf@PLT
	.loc 1 447 35
	movzbl	-30906(%rbp), %eax
	movzbl	%al, %eax
	.loc 1 447 13
	cmpl	$3, %eax
	je	.L102
	cmpl	$3, %eax
	jg	.L112
	cmpl	$2, %eax
	je	.L104
	cmpl	$2, %eax
	jg	.L112
	testl	%eax, %eax
	je	.L105
	cmpl	$1, %eax
	jne	.L112
	.loc 1 450 17
	leaq	-30906(%rbp), %rdx
	movq	-30952(%rbp), %rax
	movq	%rdx, %rsi
	movq	%rax, %rdi
	call	put_command
	.loc 1 451 17
	jmp	.L107
.L105:
	.loc 1 453 17
	leaq	-30906(%rbp), %rdx
	movq	-30952(%rbp), %rax
	movq	%rdx, %rsi
	movq	%rax, %rdi
	call	get_command
	.loc 1 454 17
	jmp	.L107
.L104:
	.loc 1 456 17
	leaq	-30906(%rbp), %rdx
	movq	-30952(%rbp), %rax
	movq	%rdx, %rsi
	movq	%rax, %rdi
	call	delete_command
	.loc 1 457 17
	jmp	.L107
.L102:
	.loc 1 459 17
	leaq	-30906(%rbp), %rdx
	movq	-30952(%rbp), %rax
	movq	%rdx, %rsi
	movq	%rax, %rdi
	call	ls_command
	.loc 1 460 17
	jmp	.L107
.L90:
.LBE20:
	.loc 1 412 13 discriminator 1
	jmp	.L108
.L112:
.LBB22:
	.loc 1 462 17
	nop
.L107:
.LBE22:
.LBE18:
	.loc 1 398 5
	jmp	.L109
.L108:
	.loc 1 471 5
	movq	-30952(%rbp), %rax
	movl	4(%rax), %eax
	movl	%eax, %edi
	call	close@PLT
	.loc 1 473 12
	movl	$0, %eax
	.loc 1 474 1
	movq	-24(%rbp), %rdx
	subq	%fs:40, %rdx
	je	.L111
	call	__stack_chk_fail@PLT
.L111:
	addq	$30944, %rsp
	popq	%rbx
	popq	%r12
	popq	%rbp
	.cfi_def_cfa 7, 8
	ret
	.cfi_endproc
.LFE326:
	.size	handle_req, .-handle_req
.Letext0:
	.file 2 "/usr/lib/gcc/x86_64-linux-gnu/14/include/stddef.h"
	.file 3 "/usr/include/x86_64-linux-gnu/bits/types.h"
	.file 4 "/usr/include/x86_64-linux-gnu/bits/types/struct_FILE.h"
	.file 5 "/usr/include/x86_64-linux-gnu/bits/types/FILE.h"
	.file 6 "/usr/include/stdio.h"
	.file 7 "/usr/include/x86_64-linux-gnu/bits/types/struct_timeval.h"
	.file 8 "/usr/include/x86_64-linux-gnu/bits/types/struct_timespec.h"
	.file 9 "/usr/include/x86_64-linux-gnu/sys/select.h"
	.file 10 "/usr/include/x86_64-linux-gnu/bits/thread-shared-types.h"
	.file 11 "/usr/include/x86_64-linux-gnu/bits/struct_mutex.h"
	.file 12 "/usr/include/x86_64-linux-gnu/bits/pthreadtypes.h"
	.file 13 "/usr/include/x86_64-linux-gnu/bits/stdint-uintn.h"
	.file 14 "/usr/include/unistd.h"
	.file 15 "/usr/include/x86_64-linux-gnu/bits/dirent.h"
	.file 16 "/usr/include/x86_64-linux-gnu/bits/sockaddr.h"
	.file 17 "/usr/include/x86_64-linux-gnu/bits/socket.h"
	.file 18 "/usr/include/netinet/in.h"
	.file 19 "/usr/include/netdb.h"
	.file 20 "/usr/include/x86_64-linux-gnu/bits/struct_stat.h"
	.file 21 "./common.h"
	.file 22 "/usr/include/ctype.h"
	.file 23 "/usr/include/dirent.h"
	.file 24 "/usr/include/stdlib.h"
	.file 25 "/usr/include/x86_64-linux-gnu/bits/unistd_ext.h"
	.file 26 "/usr/include/string.h"
	.file 27 "/usr/include/x86_64-linux-gnu/sys/stat.h"
	.file 28 "/usr/include/x86_64-linux-gnu/sys/socket.h"
	.file 29 "/usr/include/errno.h"
	.section	.note.GNU-stack,"",@progbits
	.section	.note.gnu.property,"a"
	.align 8
	.long	1f - 0f
	.long	4f - 1f
	.long	5
0:
	.string	"GNU"
1:
	.align 8
	.long	0xc0000002
	.long	3f - 2f
2:
	.long	0x3
3:
	.align 8
4:
