	.file	"proxy.c"
	.text
.Ltext0:
	.local	shutdown_flag
	.comm	shutdown_flag,4,4
	.local	shutdown_mutex
	.comm	shutdown_mutex,40,32
	.section	.rodata
.LC0:
	.string	"\n\nCleaning up resources...\n"
	.text
	.globl	sig_handler
	.type	sig_handler, @function
sig_handler:
.LFB6:
	.file 1 "proxy.c"
	.loc 1 14 27
	.cfi_startproc
	endbr64
	pushq	%rbp
	.cfi_def_cfa_offset 16
	.cfi_offset 6, -16
	movq	%rsp, %rbp
	.cfi_def_cfa_register 6
	subq	$32, %rsp
	movl	%edi, -20(%rbp)
	.loc 1 15 11
	leaq	.LC0(%rip), %rax
	movq	%rax, -8(%rbp)
	.loc 1 16 5
	movq	-8(%rbp), %rax
	movq	%rax, %rdi
	call	strlen@PLT
	movq	%rax, %rdx
	movq	-8(%rbp), %rax
	movq	%rax, %rsi
	movl	$1, %edi
	call	write@PLT
	.loc 1 17 19
	movl	$1, shutdown_flag(%rip)
	.loc 1 18 1
	nop
	leave
	.cfi_def_cfa 7, 8
	ret
	.cfi_endproc
.LFE6:
	.size	sig_handler, .-sig_handler
	.section	.rodata
.LC1:
	.string	"./cache"
	.align 8
.LC2:
	.string	"\033[32m[+] Directory '%s' created successfully.\n\033[0m"
	.align 8
.LC3:
	.string	"\033[32m[+] Directory '%s' already exists.\n\033[0m"
	.align 8
.LC4:
	.string	"\033[31m[-] Error creating directory"
	.align 8
.LC5:
	.string	"\033[31m[-] You messed up, command is ./proxy <PORT> <TIMEOUT> | (passed numer of args: %d) \n\033[0m"
	.align 8
.LC6:
	.string	"\033[32m[+] Cache Timeout is set to %d sec\n\033[0m"
	.align 8
.LC7:
	.string	"\033[32m[+] Block list updated!\n\033[0m"
.LC8:
	.string	"\033[31maccept\033[0m"
	.text
	.globl	main
	.type	main, @function
main:
.LFB7:
	.loc 1 21 1
	.cfi_startproc
	endbr64
	pushq	%rbp
	.cfi_def_cfa_offset 16
	.cfi_offset 6, -16
	movq	%rsp, %rbp
	.cfi_def_cfa_register 6
	subq	$432, %rsp
	movl	%edi, -420(%rbp)
	movq	%rsi, -432(%rbp)
	.loc 1 21 1
	movq	%fs:40, %rax
	movq	%rax, -8(%rbp)
	xorl	%eax, %eax
	.loc 1 23 5
	leaq	-384(%rbp), %rax
	movl	$152, %edx
	movl	$0, %esi
	movq	%rax, %rdi
	call	memset@PLT
	.loc 1 24 5
	leaq	-384(%rbp), %rax
	addq	$8, %rax
	movq	%rax, %rdi
	call	sigemptyset@PLT
	.loc 1 25 17
	movl	$0, -248(%rbp)
	.loc 1 26 19
	leaq	sig_handler(%rip), %rax
	movq	%rax, -384(%rbp)
	.loc 1 28 5
	leaq	-384(%rbp), %rax
	movl	$0, %edx
	movq	%rax, %rsi
	movl	$2, %edi
	call	sigaction@PLT
	.loc 1 29 5
	movl	$1, %esi
	movl	$13, %edi
	call	signal@PLT
	.loc 1 32 5
	leaq	-224(%rbp), %rax
	addq	$168, %rax
	movl	$0, %esi
	movq	%rax, %rdi
	call	pthread_mutex_init@PLT
	.loc 1 34 18
	movl	$511, %esi
	leaq	.LC1(%rip), %rdi
	call	mkdir@PLT
	movl	%eax, -404(%rbp)
	.loc 1 35 8
	cmpl	$0, -404(%rbp)
	jne	.L3
	.loc 1 36 9
	leaq	.LC1(%rip), %rsi
	leaq	.LC2(%rip), %rdi
	movl	$0, %eax
	call	printf@PLT
	jmp	.L4
.L3:
	.loc 1 37 16
	call	__errno_location@PLT
	movl	(%rax), %eax
	.loc 1 37 15
	cmpl	$17, %eax
	jne	.L5
	.loc 1 38 9
	leaq	.LC1(%rip), %rsi
	leaq	.LC3(%rip), %rdi
	movl	$0, %eax
	call	printf@PLT
	jmp	.L4
.L5:
	.loc 1 40 9
	leaq	.LC4(%rip), %rdi
	call	perror@PLT
	.loc 1 41 9
	movl	$1, %edi
	call	exit@PLT
.L4:
	.loc 1 44 8
	cmpl	$3, -420(%rbp)
	je	.L6
	.loc 1 46 11
	cmpl	$2, -420(%rbp)
	jne	.L7
	.loc 1 47 24
	movl	$60, -68(%rbp)
	jmp	.L8
.L7:
	.loc 1 50 13
	movl	-420(%rbp), %eax
	movl	%eax, %esi
	leaq	.LC5(%rip), %rdi
	movl	$0, %eax
	call	printf@PLT
	.loc 1 51 13
	movl	$1, %edi
	call	exit@PLT
.L6:
	.loc 1 56 31
	movq	-432(%rbp), %rax
	addq	$16, %rax
	.loc 1 56 22
	movq	(%rax), %rax
	movq	%rax, %rdi
	call	atoi@PLT
	.loc 1 56 20
	movl	%eax, -68(%rbp)
.L8:
	.loc 1 60 5
	movl	-68(%rbp), %eax
	movl	%eax, %esi
	leaq	.LC6(%rip), %rdi
	movl	$0, %eax
	call	printf@PLT
	.loc 1 61 17
	movl	$128, -80(%rbp)
	.loc 1 63 5
	movl	$1, %edi
	call	init_cache_table@PLT
	.loc 1 64 5
	movl	$1, %edi
	call	init_connection_table@PLT
	.loc 1 65 5
	movl	$0, %edi
	call	init_cache@PLT
	.loc 1 66 23
	movl	$0, %edi
	call	init_blocklist@PLT
	movq	%rax, -400(%rbp)
	.loc 1 67 5
	leaq	.LC7(%rip), %rdi
	movl	$0, %eax
	call	printf@PLT
	.loc 1 68 26
	movq	-432(%rbp), %rax
	addq	$8, %rax
	.loc 1 68 5
	movq	(%rax), %rdx
	leaq	-224(%rbp), %rax
	movq	%rdx, %rsi
	movq	%rax, %rdi
	call	init_socket@PLT
	.loc 1 71 21
	movl	$10, %edi
	call	create_threadpool@PLT
	movq	%rax, -392(%rbp)
	.loc 1 72 8
	cmpq	$0, -392(%rbp)
	je	.L17
	.loc 1 80 11
	jmp	.L11
.L14:
	.loc 1 82 34
	leaq	-224(%rbp), %rax
	addq	$8, %rax
	movq	%rax, %rcx
	movl	-224(%rbp), %eax
	leaq	-224(%rbp), %rdx
	addq	$144, %rdx
	movq	%rcx, %rsi
	movl	%eax, %edi
	call	accept@PLT
	.loc 1 82 32
	movl	%eax, -220(%rbp)
	.loc 1 82 16
	movl	-220(%rbp), %eax
	.loc 1 82 12
	testl	%eax, %eax
	jns	.L12
	.loc 1 82 110 discriminator 1
	call	__errno_location@PLT
	movl	(%rax), %eax
	.loc 1 82 107 discriminator 1
	cmpl	$4, %eax
	je	.L12
	.loc 1 84 13
	leaq	.LC8(%rip), %rdi
	call	perror@PLT
	.loc 1 85 13
	jmp	.L10
.L12:
	.loc 1 90 9
	leaq	-224(%rbp), %rdx
	movq	-392(%rbp), %rax
	movq	handle_req@GOTPCREL(%rip), %rcx
	movq	%rcx, %rsi
	movq	%rax, %rdi
	call	dispatch@PLT
	.loc 1 93 9
	leaq	shutdown_mutex(%rip), %rdi
	call	pthread_mutex_lock@PLT
	.loc 1 94 12
	movl	shutdown_flag(%rip), %eax
	.loc 1 94 11
	testl	%eax, %eax
	jne	.L18
	.loc 1 97 9
	leaq	shutdown_mutex(%rip), %rdi
	call	pthread_mutex_unlock@PLT
.L11:
	.loc 1 80 12
	movl	shutdown_flag(%rip), %eax
	.loc 1 80 11
	testl	%eax, %eax
	je	.L14
	.loc 1 101 1
	jmp	.L10
.L17:
	.loc 1 73 9
	nop
	jmp	.L10
.L18:
	.loc 1 95 13
	nop
.L10:
	.loc 1 103 5
	movl	-224(%rbp), %eax
	movl	%eax, %edi
	call	close@PLT
	.loc 1 104 5
	movl	$0, %edi
	call	cleanup_cache@PLT
	.loc 1 105 5
	movl	$0, %edi
	call	cleanup_blocklist@PLT
	.loc 1 106 5
	movl	$0, %edi
	call	cleanup_connection_table@PLT
	.loc 1 109 5
	movq	-392(%rbp), %rax
	movq	%rax, %rdi
	call	destroy_threadpool@PLT
	.loc 1 114 12
	movl	$0, %eax
	.loc 1 115 1
	movq	-8(%rbp), %rcx
	xorq	%fs:40, %rcx
	je	.L16
	call	__stack_chk_fail@PLT
.L16:
	leave
	.cfi_def_cfa 7, 8
	ret
	.cfi_endproc
.LFE7:
	.size	main, .-main
.Letext0:
	.file 2 "/usr/lib/gcc/x86_64-linux-gnu/9/include/stddef.h"
	.file 3 "/usr/include/x86_64-linux-gnu/bits/types.h"
	.file 4 "/usr/include/x86_64-linux-gnu/bits/types/struct_FILE.h"
	.file 5 "/usr/include/x86_64-linux-gnu/bits/types/FILE.h"
	.file 6 "/usr/include/stdio.h"
	.file 7 "/usr/include/x86_64-linux-gnu/bits/sys_errlist.h"
	.file 8 "/usr/include/x86_64-linux-gnu/bits/types/__sigset_t.h"
	.file 9 "/usr/include/x86_64-linux-gnu/bits/types/struct_timespec.h"
	.file 10 "/usr/include/x86_64-linux-gnu/bits/thread-shared-types.h"
	.file 11 "/usr/include/x86_64-linux-gnu/bits/struct_mutex.h"
	.file 12 "/usr/include/x86_64-linux-gnu/bits/pthreadtypes.h"
	.file 13 "/usr/include/x86_64-linux-gnu/bits/stdint-uintn.h"
	.file 14 "/usr/include/unistd.h"
	.file 15 "/usr/include/x86_64-linux-gnu/bits/getopt_core.h"
	.file 16 "/usr/include/errno.h"
	.file 17 "/usr/include/x86_64-linux-gnu/bits/sockaddr.h"
	.file 18 "/usr/include/x86_64-linux-gnu/bits/socket.h"
	.file 19 "/usr/include/netinet/in.h"
	.file 20 "/usr/include/x86_64-linux-gnu/bits/types/__sigval_t.h"
	.file 21 "/usr/include/netdb.h"
	.file 22 "/usr/include/x86_64-linux-gnu/bits/stat.h"
	.file 23 "/usr/include/x86_64-linux-gnu/bits/types/sig_atomic_t.h"
	.file 24 "/usr/include/x86_64-linux-gnu/bits/types/siginfo_t.h"
	.file 25 "/usr/include/signal.h"
	.file 26 "/usr/include/x86_64-linux-gnu/bits/sigaction.h"
	.file 27 "/usr/include/time.h"
	.file 28 "common.h"
	.file 29 "includes/queue.h"
	.file 30 "includes/blocklist.h"
	.file 31 "/usr/include/regex.h"
	.file 32 "/usr/include/pthread.h"
	.section	.note.GNU-stack,"",@progbits
	.section	.note.gnu.property,"a"
	.align 8
	.long	 1f - 0f
	.long	 4f - 1f
	.long	 5
0:
	.string	 "GNU"
1:
	.align 8
	.long	 0xc0000002
	.long	 3f - 2f
2:
	.long	 0x3
3:
	.align 8
4:
