	.file	"builder.c"
	.text
.Ltext0:
	.file 0 "/home/parth/Work/All_data/university/Network System/Assignments/PA3" "src/builder.c"
	.section	.rodata
.LC0:
	.string	"HTTP/1.0"
.LC1:
	.string	"HTTP/1.1"
	.section	.data.rel.local,"aw"
	.align 32
	.type	http_type, @object
	.size	http_type, 32
http_type:
	.quad	.LC0
	.quad	.LC1
	.zero	16
	.section	.rodata
.LC2:
	.string	"200 OK"
.LC3:
	.string	"400 Bad Request"
.LC4:
	.string	"403 Forbidden"
.LC5:
	.string	"404 Not Found"
.LC6:
	.string	"405 Method Not Allowed"
	.align 8
.LC7:
	.string	"505 HTTP Version Not Supported"
	.section	.data.rel.local
	.align 32
	.type	status_codes, @object
	.size	status_codes, 272
status_codes:
	.quad	.LC2
	.quad	.LC3
	.quad	.LC4
	.quad	.LC5
	.quad	.LC6
	.quad	.LC7
	.zero	224
	.section	.rodata
.LC8:
	.string	"GET"
.LC9:
	.string	"POST"
.LC10:
	.string	"DELETE"
.LC11:
	.string	"PATCH"
	.section	.data.rel.local
	.align 32
	.type	reqMethod, @object
	.size	reqMethod, 56
reqMethod:
	.quad	.LC8
	.quad	.LC9
	.quad	.LC10
	.quad	.LC11
	.zero	24
	.section	.rodata
.LC12:
	.string	"text/html"
.LC13:
	.string	"text/css"
.LC14:
	.string	"text/plain"
.LC15:
	.string	"application/javascript"
.LC16:
	.string	"image/png"
.LC17:
	.string	"image/gif"
.LC18:
	.string	"image/jpg"
.LC19:
	.string	"image/x-icon"
.LC20:
	.string	"ERROR"
	.section	.data.rel.local
	.align 32
	.type	contentType, @object
	.size	contentType, 72
contentType:
	.quad	.LC12
	.quad	.LC13
	.quad	.LC14
	.quad	.LC15
	.quad	.LC16
	.quad	.LC17
	.quad	.LC18
	.quad	.LC19
	.quad	.LC20
	.section	.rodata
	.align 8
.LC21:
	.string	"%s %s\r\nContent-Type: text/plain\r\n\r\n%s"
	.text
	.globl	send_
	.type	send_, @function
send_:
.LFB6:
	.file 1 "src/builder.c"
	.loc 1 60 1
	.cfi_startproc
	endbr64
	pushq	%rbp
	.cfi_def_cfa_offset 16
	.cfi_offset 6, -16
	movq	%rsp, %rbp
	.cfi_def_cfa_register 6
	subq	$64, %rsp
	movq	%rdi, -40(%rbp)
	movq	%rsi, -48(%rbp)
	movl	%edx, -52(%rbp)
	movq	%rcx, -64(%rbp)
	.loc 1 60 1
	movq	%fs:40, %rax
	movq	%rax, -8(%rbp)
	xorl	%eax, %eax
	.loc 1 64 19
	movl	-52(%rbp), %eax
	leaq	0(,%rax,8), %rdx
	leaq	status_codes(%rip), %rax
	movq	(%rdx,%rax), %rcx
	movq	-40(%rbp), %rax
	movq	8(%rax), %rdx
	movq	-48(%rbp), %rsi
	leaq	-16(%rbp), %rax
	movq	%rsi, %r8
	leaq	.LC21(%rip), %rsi
	movq	%rax, %rdi
	movl	$0, %eax
	call	asprintf@PLT
	movl	%eax, -20(%rbp)
	.loc 1 73 5
	movl	-20(%rbp), %eax
	movslq	%eax, %rdx
	movq	-16(%rbp), %rsi
	movq	-64(%rbp), %rax
	movl	4(%rax), %eax
	movl	$0, %ecx
	movl	%eax, %edi
	call	send@PLT
	.loc 1 74 1
	nop
	movq	-8(%rbp), %rax
	subq	%fs:40, %rax
	je	.L2
	call	__stack_chk_fail@PLT
.L2:
	leave
	.cfi_def_cfa 7, 8
	ret
	.cfi_endproc
.LFE6:
	.size	send_, .-send_
	.section	.rodata
.LC22:
	.string	"html"
.LC23:
	.string	"htm"
.LC24:
	.string	"css"
.LC25:
	.string	"txt"
.LC26:
	.string	"js"
.LC27:
	.string	"png"
.LC28:
	.string	"gif"
.LC29:
	.string	"jpg"
.LC30:
	.string	"ico"
	.text
	.type	get_content_type, @function
get_content_type:
.LFB7:
	.loc 1 91 1
	.cfi_startproc
	endbr64
	pushq	%rbp
	.cfi_def_cfa_offset 16
	.cfi_offset 6, -16
	movq	%rsp, %rbp
	.cfi_def_cfa_register 6
	subq	$16, %rsp
	movq	%rdi, -8(%rbp)
	.loc 1 92 8
	cmpq	$0, -8(%rbp)
	jne	.L4
	.loc 1 93 16
	movl	$2, %eax
	jmp	.L5
.L4:
	.loc 1 94 10
	movq	-8(%rbp), %rax
	leaq	.LC22(%rip), %rdx
	movq	%rdx, %rsi
	movq	%rax, %rdi
	call	strcmp@PLT
	.loc 1 94 8 discriminator 1
	testl	%eax, %eax
	je	.L6
	.loc 1 94 34 discriminator 1
	movq	-8(%rbp), %rax
	leaq	.LC23(%rip), %rdx
	movq	%rdx, %rsi
	movq	%rax, %rdi
	call	strcmp@PLT
	.loc 1 94 30 discriminator 1
	testl	%eax, %eax
	jne	.L7
.L6:
	.loc 1 95 16
	movl	$0, %eax
	jmp	.L5
.L7:
	.loc 1 96 10
	movq	-8(%rbp), %rax
	leaq	.LC24(%rip), %rdx
	movq	%rdx, %rsi
	movq	%rax, %rdi
	call	strcmp@PLT
	.loc 1 96 8 discriminator 1
	testl	%eax, %eax
	jne	.L8
	.loc 1 97 16
	movl	$1, %eax
	jmp	.L5
.L8:
	.loc 1 98 10
	movq	-8(%rbp), %rax
	leaq	.LC25(%rip), %rdx
	movq	%rdx, %rsi
	movq	%rax, %rdi
	call	strcmp@PLT
	.loc 1 98 8 discriminator 1
	testl	%eax, %eax
	jne	.L9
	.loc 1 99 16
	movl	$2, %eax
	jmp	.L5
.L9:
	.loc 1 100 10
	movq	-8(%rbp), %rax
	leaq	.LC26(%rip), %rdx
	movq	%rdx, %rsi
	movq	%rax, %rdi
	call	strcmp@PLT
	.loc 1 100 8 discriminator 1
	testl	%eax, %eax
	jne	.L10
	.loc 1 101 16
	movl	$3, %eax
	jmp	.L5
.L10:
	.loc 1 102 10
	movq	-8(%rbp), %rax
	leaq	.LC27(%rip), %rdx
	movq	%rdx, %rsi
	movq	%rax, %rdi
	call	strcmp@PLT
	.loc 1 102 8 discriminator 1
	testl	%eax, %eax
	jne	.L11
	.loc 1 103 16
	movl	$4, %eax
	jmp	.L5
.L11:
	.loc 1 104 10
	movq	-8(%rbp), %rax
	leaq	.LC28(%rip), %rdx
	movq	%rdx, %rsi
	movq	%rax, %rdi
	call	strcmp@PLT
	.loc 1 104 8 discriminator 1
	testl	%eax, %eax
	jne	.L12
	.loc 1 105 16
	movl	$5, %eax
	jmp	.L5
.L12:
	.loc 1 106 10
	movq	-8(%rbp), %rax
	leaq	.LC29(%rip), %rdx
	movq	%rdx, %rsi
	movq	%rax, %rdi
	call	strcmp@PLT
	.loc 1 106 8 discriminator 1
	testl	%eax, %eax
	jne	.L13
	.loc 1 107 16
	movl	$6, %eax
	jmp	.L5
.L13:
	.loc 1 108 10
	movq	-8(%rbp), %rax
	movl	$3, %edx
	leaq	.LC30(%rip), %rcx
	movq	%rcx, %rsi
	movq	%rax, %rdi
	call	strncmp@PLT
	.loc 1 108 8 discriminator 1
	testl	%eax, %eax
	jne	.L14
	.loc 1 109 16
	movl	$7, %eax
	jmp	.L5
.L14:
	.loc 1 111 16
	movl	$8, %eax
.L5:
	.loc 1 112 1
	leave
	.cfi_def_cfa 7, 8
	ret
	.cfi_endproc
.LFE7:
	.size	get_content_type, .-get_content_type
	.section	.rodata
.LC31:
	.string	"/"
.LC32:
	.string	"./www"
.LC33:
	.string	"%s/index.html"
.LC34:
	.string	"%s%s"
	.text
	.type	construct_filepath, @function
construct_filepath:
.LFB8:
	.loc 1 125 1
	.cfi_startproc
	endbr64
	pushq	%rbp
	.cfi_def_cfa_offset 16
	.cfi_offset 6, -16
	movq	%rsp, %rbp
	.cfi_def_cfa_register 6
	subq	$32, %rsp
	movq	%rdi, -24(%rbp)
	.loc 1 125 1
	movq	%fs:40, %rax
	movq	%rax, -8(%rbp)
	xorl	%eax, %eax
	.loc 1 127 10
	movq	-24(%rbp), %rax
	leaq	.LC31(%rip), %rdx
	movq	%rdx, %rsi
	movq	%rax, %rdi
	call	strcmp@PLT
	.loc 1 127 8 discriminator 1
	testl	%eax, %eax
	jne	.L16
	.loc 1 129 9
	leaq	-16(%rbp), %rax
	leaq	.LC32(%rip), %rdx
	leaq	.LC33(%rip), %rcx
	movq	%rcx, %rsi
	movq	%rax, %rdi
	movl	$0, %eax
	call	asprintf@PLT
	jmp	.L17
.L16:
	.loc 1 133 9
	movq	-24(%rbp), %rdx
	leaq	-16(%rbp), %rax
	movq	%rdx, %rcx
	leaq	.LC32(%rip), %rdx
	leaq	.LC34(%rip), %rsi
	movq	%rax, %rdi
	movl	$0, %eax
	call	asprintf@PLT
.L17:
	.loc 1 135 12
	movq	-16(%rbp), %rax
	.loc 1 136 1
	movq	-8(%rbp), %rdx
	subq	%fs:40, %rdx
	je	.L19
	call	__stack_chk_fail@PLT
.L19:
	leave
	.cfi_def_cfa 7, 8
	ret
	.cfi_endproc
.LFE8:
	.size	construct_filepath, .-construct_filepath
	.section	.rodata
.LC35:
	.string	".html"
.LC36:
	.string	".htm"
.LC37:
	.string	"%sl"
	.text
	.globl	try_alternative_html
	.type	try_alternative_html, @function
try_alternative_html:
.LFB9:
	.loc 1 150 1
	.cfi_startproc
	endbr64
	pushq	%rbp
	.cfi_def_cfa_offset 16
	.cfi_offset 6, -16
	movq	%rsp, %rbp
	.cfi_def_cfa_register 6
	subq	$32, %rsp
	movq	%rdi, -24(%rbp)
	movq	%rsi, -32(%rbp)
	.loc 1 151 8
	cmpq	$0, -24(%rbp)
	je	.L21
	.loc 1 151 28 discriminator 1
	cmpq	$0, -32(%rbp)
	jne	.L22
.L21:
	.loc 1 152 16
	movl	$-1, %eax
	jmp	.L23
.L22:
	.loc 1 154 9
	movl	$-1, -12(%rbp)
	.loc 1 155 18
	movq	-24(%rbp), %rax
	movq	%rax, %rdi
	call	strlen@PLT
	movq	%rax, -8(%rbp)
	.loc 1 158 8
	cmpq	$5, -8(%rbp)
	jbe	.L24
	.loc 1 158 51 discriminator 1
	movq	-8(%rbp), %rax
	leaq	-5(%rax), %rdx
	.loc 1 158 20 discriminator 1
	movq	-24(%rbp), %rax
	addq	%rdx, %rax
	leaq	.LC35(%rip), %rdx
	movq	%rdx, %rsi
	movq	%rax, %rdi
	call	strcmp@PLT
	.loc 1 158 17 discriminator 1
	testl	%eax, %eax
	jne	.L24
	.loc 1 160 27
	movq	-24(%rbp), %rax
	movq	%rax, %rdi
	call	strdup@PLT
	movq	%rax, %rdx
	.loc 1 160 25 discriminator 1
	movq	-32(%rbp), %rax
	movq	%rdx, (%rax)
	.loc 1 161 14
	movq	-32(%rbp), %rax
	movq	(%rax), %rax
	.loc 1 161 12
	testq	%rax, %rax
	jne	.L25
	.loc 1 162 20
	movl	$-1, %eax
	jmp	.L23
.L25:
	.loc 1 164 10
	movq	-32(%rbp), %rax
	movq	(%rax), %rax
	.loc 1 164 26
	movq	-8(%rbp), %rdx
	subq	$1, %rdx
	addq	%rdx, %rax
	.loc 1 164 36
	movb	$0, (%rax)
	.loc 1 165 14
	movq	-32(%rbp), %rax
	movq	(%rax), %rax
	movl	$0, %esi
	movq	%rax, %rdi
	movl	$0, %eax
	call	open@PLT
	movl	%eax, -12(%rbp)
	.loc 1 166 12
	cmpl	$0, -12(%rbp)
	jns	.L27
	.loc 1 168 13
	movq	-32(%rbp), %rax
	movq	(%rax), %rax
	movq	%rax, %rdi
	call	free@PLT
	.loc 1 169 29
	movq	-32(%rbp), %rax
	movq	$0, (%rax)
	.loc 1 166 12
	jmp	.L27
.L24:
	.loc 1 173 13
	cmpq	$4, -8(%rbp)
	jbe	.L27
	.loc 1 173 56 discriminator 1
	movq	-8(%rbp), %rax
	leaq	-4(%rax), %rdx
	.loc 1 173 25 discriminator 1
	movq	-24(%rbp), %rax
	addq	%rdx, %rax
	leaq	.LC36(%rip), %rdx
	movq	%rdx, %rsi
	movq	%rax, %rdi
	call	strcmp@PLT
	.loc 1 173 22 discriminator 1
	testl	%eax, %eax
	jne	.L27
	.loc 1 175 13
	movq	-24(%rbp), %rdx
	movq	-32(%rbp), %rax
	leaq	.LC37(%rip), %rcx
	movq	%rcx, %rsi
	movq	%rax, %rdi
	movl	$0, %eax
	call	asprintf@PLT
	.loc 1 175 12 discriminator 1
	testl	%eax, %eax
	jns	.L28
	.loc 1 177 20
	movl	$-1, %eax
	jmp	.L23
.L28:
	.loc 1 179 14
	movq	-32(%rbp), %rax
	movq	(%rax), %rax
	movl	$0, %esi
	movq	%rax, %rdi
	movl	$0, %eax
	call	open@PLT
	movl	%eax, -12(%rbp)
	.loc 1 180 12
	cmpl	$0, -12(%rbp)
	jns	.L27
	.loc 1 182 13
	movq	-32(%rbp), %rax
	movq	(%rax), %rax
	movq	%rax, %rdi
	call	free@PLT
	.loc 1 183 29
	movq	-32(%rbp), %rax
	movq	$0, (%rax)
.L27:
	.loc 1 187 12
	movl	-12(%rbp), %eax
.L23:
	.loc 1 188 1
	leave
	.cfi_def_cfa 7, 8
	ret
	.cfi_endproc
.LFE9:
	.size	try_alternative_html, .-try_alternative_html
	.section	.rodata
	.align 8
.LC38:
	.string	"\033[31m[-] (%d) Access denied\n\033[0m"
.LC39:
	.string	"Access denied"
	.align 8
.LC40:
	.string	"\033[31m[-] (%d) File not found (tried both .html and .htm)\n\033[0m"
.LC41:
	.string	"File not found"
	.align 8
.LC42:
	.string	"\033[32m[+] (%d) Found alternative HTML file\n\033[0m"
	.align 8
.LC43:
	.string	"\033[31m[-] (%d) File not found\n\033[0m"
	.align 8
.LC44:
	.string	"\033[31m[-] (%d) Bad request\n\033[0m"
.LC45:
	.string	"Bad request"
	.text
	.globl	handle_file_request
	.type	handle_file_request, @function
handle_file_request:
.LFB10:
	.loc 1 208 1
	.cfi_startproc
	endbr64
	pushq	%rbp
	.cfi_def_cfa_offset 16
	.cfi_offset 6, -16
	movq	%rsp, %rbp
	.cfi_def_cfa_register 6
	subq	$48, %rsp
	movq	%rdi, -24(%rbp)
	movq	%rsi, -32(%rbp)
	movq	%rdx, -40(%rbp)
	movq	%rcx, -48(%rbp)
	.loc 1 209 14
	movq	-40(%rbp), %rax
	movl	$0, %esi
	movq	%rax, %rdi
	movl	$0, %eax
	call	open@PLT
	movl	%eax, -12(%rbp)
	.loc 1 210 23
	movq	-40(%rbp), %rax
	movq	%rax, %rdi
	call	strdup@PLT
	movq	%rax, %rdx
	.loc 1 210 21 discriminator 1
	movq	-48(%rbp), %rax
	movq	%rdx, (%rax)
	.loc 1 212 8
	cmpl	$0, -12(%rbp)
	jns	.L30
.LBB2:
	.loc 1 214 27
	movq	-40(%rbp), %rax
	movl	$46, %esi
	movq	%rax, %rdi
	call	strrchr@PLT
	movq	%rax, -8(%rbp)
	.loc 1 216 17
	call	__errno_location@PLT
	.loc 1 216 17 is_stmt 0 discriminator 1
	movl	(%rax), %eax
	.loc 1 216 9 is_stmt 1 discriminator 1
	cmpl	$2, %eax
	je	.L31
	cmpl	$13, %eax
	jne	.L32
	.loc 1 219 13
	call	gettid@PLT
	.loc 1 219 13 is_stmt 0 discriminator 1
	movl	%eax, %esi
	leaq	.LC38(%rip), %rax
	movq	%rax, %rdi
	movl	$0, %eax
	call	printf@PLT
	.loc 1 220 13 is_stmt 1
	movq	-32(%rbp), %rdx
	movq	-24(%rbp), %rax
	movq	%rdx, %rcx
	movl	$4, %edx
	leaq	.LC39(%rip), %rsi
	movq	%rax, %rdi
	call	send_
	.loc 1 221 13
	jmp	.L33
.L31:
	.loc 1 225 16
	cmpq	$0, -8(%rbp)
	je	.L34
	.loc 1 225 25 discriminator 1
	movq	-48(%rbp), %rax
	movq	(%rax), %rax
	.loc 1 225 21 discriminator 1
	testq	%rax, %rax
	je	.L34
	.loc 1 226 18
	movq	-8(%rbp), %rax
	leaq	.LC35(%rip), %rdx
	movq	%rdx, %rsi
	movq	%rax, %rdi
	call	strcmp@PLT
	.loc 1 225 50 discriminator 2
	testl	%eax, %eax
	je	.L35
	.loc 1 226 47
	movq	-8(%rbp), %rax
	leaq	.LC36(%rip), %rdx
	movq	%rdx, %rsi
	movq	%rax, %rdi
	call	strcmp@PLT
	.loc 1 226 44 discriminator 1
	testl	%eax, %eax
	jne	.L34
.L35:
	.loc 1 229 17
	movq	-48(%rbp), %rax
	movq	(%rax), %rax
	movq	%rax, %rdi
	call	free@PLT
	.loc 1 230 22
	movq	-48(%rbp), %rdx
	movq	-40(%rbp), %rax
	movq	%rdx, %rsi
	movq	%rax, %rdi
	call	try_alternative_html
	movl	%eax, -12(%rbp)
	.loc 1 232 20
	cmpl	$0, -12(%rbp)
	jns	.L36
	.loc 1 234 21
	call	gettid@PLT
	.loc 1 234 21 is_stmt 0 discriminator 1
	movl	%eax, %esi
	leaq	.LC40(%rip), %rax
	movq	%rax, %rdi
	movl	$0, %eax
	call	printf@PLT
	.loc 1 235 21 is_stmt 1
	movq	-32(%rbp), %rdx
	movq	-24(%rbp), %rax
	movq	%rdx, %rcx
	movl	$8, %edx
	leaq	.LC41(%rip), %rsi
	movq	%rax, %rdi
	call	send_
	.loc 1 232 20
	nop
	.loc 1 248 13
	jmp	.L33
.L36:
	.loc 1 239 21
	call	gettid@PLT
	.loc 1 239 21 is_stmt 0 discriminator 1
	movl	%eax, %esi
	leaq	.LC42(%rip), %rax
	movq	%rax, %rdi
	movl	$0, %eax
	call	printf@PLT
	.loc 1 240 28 is_stmt 1
	movl	-12(%rbp), %eax
	jmp	.L38
.L34:
	.loc 1 245 17
	call	gettid@PLT
	.loc 1 245 17 is_stmt 0 discriminator 1
	movl	%eax, %esi
	leaq	.LC43(%rip), %rax
	movq	%rax, %rdi
	movl	$0, %eax
	call	printf@PLT
	.loc 1 246 17 is_stmt 1
	movq	-32(%rbp), %rdx
	movq	-24(%rbp), %rax
	movq	%rdx, %rcx
	movl	$8, %edx
	leaq	.LC41(%rip), %rsi
	movq	%rax, %rdi
	call	send_
	.loc 1 248 13
	jmp	.L33
.L32:
	.loc 1 251 13
	call	gettid@PLT
	.loc 1 251 13 is_stmt 0 discriminator 1
	movl	%eax, %esi
	leaq	.LC44(%rip), %rax
	movq	%rax, %rdi
	movl	$0, %eax
	call	printf@PLT
	.loc 1 252 13 is_stmt 1
	movq	-32(%rbp), %rdx
	movq	-24(%rbp), %rax
	movq	%rdx, %rcx
	movl	$2, %edx
	leaq	.LC45(%rip), %rsi
	movq	%rax, %rdi
	call	send_
	.loc 1 253 13
	nop
.L33:
	.loc 1 256 9
	movq	-48(%rbp), %rax
	movq	(%rax), %rax
	movq	%rax, %rdi
	call	free@PLT
	.loc 1 257 25
	movq	-48(%rbp), %rax
	movq	$0, (%rax)
	.loc 1 258 16
	movl	$-1, %eax
	jmp	.L38
.L30:
.LBE2:
	.loc 1 261 12
	movl	-12(%rbp), %eax
.L38:
	.loc 1 262 1
	leave
	.cfi_def_cfa 7, 8
	ret
	.cfi_endproc
.LFE10:
	.size	handle_file_request, .-handle_file_request
	.section	.rodata
	.align 8
.LC46:
	.string	"\033[31m[-] (%d) SOMETHING WENT WRONG\n\033[0m"
.LC47:
	.string	"SOMETHING WENT WRONG"
.LC48:
	.string	"Internal server error"
	.align 8
.LC49:
	.string	"\033[31m[-] (%d) Bad Extension\n\033[0m"
.LC50:
	.string	"Bad Extension"
.LC51:
	.string	"Connection: Keep-alive"
.LC52:
	.string	"Connection: close"
	.align 8
.LC53:
	.string	"%s %s\r\nContent-Type: %s\r\nContent-Length: %ld\r\n%s\r\r\n\n"
.LC54:
	.string	"Send header"
	.align 8
.LC55:
	.string	"\033[35m[+] (%d) Sent file %s, size: %d\n\033[0m"
	.align 8
.LC56:
	.string	"\033[31m[-] (%d) Method not allowed \n\033[0m"
.LC57:
	.string	"Method not allowed !"
	.text
	.globl	build_and_send_header
	.type	build_and_send_header, @function
build_and_send_header:
.LFB11:
	.loc 1 286 1
	.cfi_startproc
	endbr64
	pushq	%rbp
	.cfi_def_cfa_offset 16
	.cfi_offset 6, -16
	movq	%rsp, %rbp
	.cfi_def_cfa_register 6
	leaq	-28672(%rsp), %r11
.LPSRL0:
	subq	$4096, %rsp
	orq	$0, (%rsp)
	cmpq	%r11, %rsp
	jne	.LPSRL0
	subq	$2160, %rsp
	movq	%rdi, -30824(%rbp)
	movq	%rsi, -30832(%rbp)
	.loc 1 286 1
	movq	%fs:40, %rax
	movq	%rax, -8(%rbp)
	xorl	%eax, %eax
	.loc 1 290 8
	cmpq	$0, -30824(%rbp)
	je	.L59
	.loc 1 294 23
	movq	-30824(%rbp), %rax
	movl	96(%rax), %eax
	.loc 1 294 38
	andl	$1, %eax
	.loc 1 294 7
	testl	%eax, %eax
	jne	.L43
	.loc 1 295 9
	call	gettid@PLT
	.loc 1 295 9 is_stmt 0 discriminator 1
	movl	%eax, %esi
	leaq	.LC46(%rip), %rax
	movq	%rax, %rdi
	movl	$0, %eax
	call	printf@PLT
	.loc 1 296 69 is_stmt 1
	movq	-30824(%rbp), %rax
	movl	96(%rax), %eax
	.loc 1 296 9
	movl	%eax, %esi
	movq	-30832(%rbp), %rdx
	movq	-30824(%rbp), %rax
	movq	%rdx, %rcx
	movl	%esi, %edx
	leaq	.LC47(%rip), %rsi
	movq	%rax, %rdi
	call	send_
	.loc 1 297 9
	jmp	.L40
.L43:
	.loc 1 302 49
	movq	-30824(%rbp), %rax
	movq	16(%rax), %rax
	.loc 1 302 16
	movq	%rax, %rdi
	call	construct_filepath
	movq	%rax, -30776(%rbp)
	.loc 1 303 8
	cmpq	$0, -30776(%rbp)
	jne	.L44
	.loc 1 305 9
	movq	-30832(%rbp), %rdx
	movq	-30824(%rbp), %rax
	movq	%rdx, %rcx
	movl	$4, %edx
	leaq	.LC48(%rip), %rsi
	movq	%rax, %rdi
	call	send_
	.loc 1 306 9
	jmp	.L40
.L44:
	.loc 1 310 14
	leaq	-30792(%rbp), %rcx
	movq	-30776(%rbp), %rdx
	movq	-30832(%rbp), %rsi
	movq	-30824(%rbp), %rax
	movq	%rax, %rdi
	call	handle_file_request
	movl	%eax, -30812(%rbp)
	.loc 1 311 8
	cmpl	$0, -30812(%rbp)
	jns	.L45
	.loc 1 313 9
	movq	-30776(%rbp), %rax
	movq	%rax, %rdi
	call	free@PLT
	.loc 1 314 9
	jmp	.L40
.L45:
	.loc 1 324 23
	movq	-30824(%rbp), %rax
	movl	56(%rax), %eax
	.loc 1 324 8
	testl	%eax, %eax
	jne	.L46
.LBB3:
	.loc 1 327 15
	movq	-30776(%rbp), %rax
	movl	$46, %esi
	movq	%rax, %rdi
	call	strrchr@PLT
	movq	%rax, -30768(%rbp)
	.loc 1 328 36
	cmpq	$0, -30768(%rbp)
	je	.L47
	.loc 1 328 36 is_stmt 0 discriminator 1
	movq	-30768(%rbp), %rax
	addq	$1, %rax
	jmp	.L48
.L47:
	.loc 1 328 36 discriminator 2
	movl	$0, %eax
.L48:
	.loc 1 328 36 discriminator 4
	movq	%rax, %rdi
	call	get_content_type
	.loc 1 328 22 is_stmt 1 discriminator 1
	movl	%eax, %eax
	leaq	0(,%rax,8), %rdx
	leaq	contentType(%rip), %rax
	movq	(%rdx,%rax), %rax
	movq	%rax, -30760(%rbp)
	.loc 1 330 13
	movq	-30760(%rbp), %rax
	movl	$5, %edx
	leaq	.LC20(%rip), %rcx
	movq	%rcx, %rsi
	movq	%rax, %rdi
	call	strncmp@PLT
	.loc 1 330 12 discriminator 1
	testl	%eax, %eax
	jne	.L49
	.loc 1 332 13
	movq	-30776(%rbp), %rax
	movq	%rax, %rdi
	call	free@PLT
	.loc 1 333 13
	call	gettid@PLT
	.loc 1 333 13 is_stmt 0 discriminator 1
	movl	%eax, %esi
	leaq	.LC49(%rip), %rax
	movq	%rax, %rdi
	movl	$0, %eax
	call	printf@PLT
	.loc 1 334 13 is_stmt 1
	movq	-30832(%rbp), %rdx
	movq	-30824(%rbp), %rax
	movq	%rdx, %rcx
	movl	$2, %edx
	leaq	.LC50(%rip), %rsi
	movq	%rax, %rdi
	call	send_
	.loc 1 335 13
	jmp	.L40
.L49:
	.loc 1 339 16
	movl	-30812(%rbp), %eax
	movl	$2, %edx
	movl	$0, %esi
	movl	%eax, %edi
	call	lseek@PLT
	.loc 1 339 14 discriminator 1
	movq	%rax, -30752(%rbp)
	.loc 1 340 9
	movl	-30812(%rbp), %eax
	movl	$0, %edx
	movl	$0, %esi
	movl	%eax, %edi
	call	lseek@PLT
	.loc 1 343 53
	movq	-30824(%rbp), %rax
	movl	88(%rax), %eax
	.loc 1 343 104
	testl	%eax, %eax
	je	.L50
	.loc 1 343 104 is_stmt 0 discriminator 1
	leaq	.LC51(%rip), %rax
	jmp	.L51
.L50:
	.loc 1 343 104 discriminator 2
	leaq	.LC52(%rip), %rax
.L51:
	.loc 1 343 21 is_stmt 1 discriminator 4
	movq	%rax, -30744(%rbp)
	.loc 1 346 23
	movq	8+status_codes(%rip), %rcx
	movq	-30824(%rbp), %rax
	movq	8(%rax), %rdx
	movq	-30752(%rbp), %rdi
	movq	-30760(%rbp), %rsi
	leaq	-30784(%rbp), %rax
	subq	$8, %rsp
	pushq	-30744(%rbp)
	movq	%rdi, %r9
	movq	%rsi, %r8
	leaq	.LC53(%rip), %rsi
	movq	%rax, %rdi
	movl	$0, %eax
	call	asprintf@PLT
	addq	$16, %rsp
	movl	%eax, -30804(%rbp)
	.loc 1 348 12
	cmpl	$0, -30804(%rbp)
	jns	.L52
	.loc 1 350 13
	movl	-30812(%rbp), %eax
	movl	%eax, %edi
	call	close@PLT
	.loc 1 351 13
	movq	-30776(%rbp), %rax
	movq	%rax, %rdi
	call	free@PLT
	.loc 1 352 13
	call	gettid@PLT
	.loc 1 352 13 is_stmt 0 discriminator 1
	movl	%eax, %esi
	leaq	.LC44(%rip), %rax
	movq	%rax, %rdi
	movl	$0, %eax
	call	printf@PLT
	.loc 1 353 13 is_stmt 1
	movq	-30832(%rbp), %rdx
	movq	-30824(%rbp), %rax
	movq	%rdx, %rcx
	movl	$2, %edx
	leaq	.LC45(%rip), %rsi
	movq	%rax, %rdi
	call	send_
	.loc 1 354 32
	movq	-30784(%rbp), %rax
	.loc 1 354 16
	testq	%rax, %rax
	je	.L60
	.loc 1 355 17
	movq	-30784(%rbp), %rax
	movq	%rax, %rdi
	call	free@PLT
	.loc 1 356 13
	jmp	.L60
.L52:
	.loc 1 360 13
	movl	$0, -30800(%rbp)
	.loc 1 360 27
	movq	-30752(%rbp), %rax
	movl	%eax, -30796(%rbp)
	.loc 1 361 25
	movl	-30804(%rbp), %eax
	movslq	%eax, %rdx
	movq	-30784(%rbp), %rsi
	movq	-30832(%rbp), %rax
	movl	4(%rax), %eax
	movl	$16384, %ecx
	movl	%eax, %edi
	call	send@PLT
	.loc 1 361 23 discriminator 1
	movl	%eax, -30800(%rbp)
	.loc 1 361 12 discriminator 1
	cmpl	$0, -30800(%rbp)
	jns	.L54
	.loc 1 363 13
	movq	-30832(%rbp), %rax
	movl	4(%rax), %eax
	movl	%eax, %edi
	call	close@PLT
	.loc 1 364 13
	movl	-30812(%rbp), %eax
	movl	%eax, %edi
	call	close@PLT
	.loc 1 365 13
	leaq	.LC54(%rip), %rax
	movq	%rax, %rdi
	call	perror@PLT
	.loc 1 366 13
	jmp	.L40
.L54:
	.loc 1 371 20
	movq	-30832(%rbp), %rax
	movl	4(%rax), %eax
	movq	-30752(%rbp), %rdx
	movl	-30812(%rbp), %esi
	movq	%rdx, %rcx
	movl	$0, %edx
	movl	%eax, %edi
	call	sendfile@PLT
	.loc 1 371 18 discriminator 1
	movl	%eax, -30800(%rbp)
	.loc 1 372 12
	cmpl	$0, -30800(%rbp)
	jle	.L55
	.loc 1 374 13
	call	gettid@PLT
	movl	%eax, %esi
	.loc 1 374 13 is_stmt 0 discriminator 1
	movl	-30800(%rbp), %edx
	movq	-30776(%rbp), %rax
	movl	%edx, %ecx
	movq	%rax, %rdx
	leaq	.LC55(%rip), %rax
	movq	%rax, %rdi
	movl	$0, %eax
	call	printf@PLT
	.loc 1 375 13 is_stmt 1
	movl	-30812(%rbp), %eax
	movl	%eax, %edi
	call	close@PLT
	.loc 1 376 13
	jmp	.L40
.L55:
	.loc 1 395 9
	movq	-30776(%rbp), %rax
	movq	%rax, %rdi
	call	free@PLT
	.loc 1 396 9
	movl	-30812(%rbp), %eax
	movl	%eax, %edi
	call	close@PLT
.LBE3:
	jmp	.L40
.L46:
	.loc 1 401 9
	call	gettid@PLT
	.loc 1 401 9 is_stmt 0 discriminator 1
	movl	%eax, %esi
	leaq	.LC56(%rip), %rax
	movq	%rax, %rdi
	movl	$0, %eax
	call	printf@PLT
	.loc 1 402 9 is_stmt 1
	movq	-30832(%rbp), %rdx
	movq	-30824(%rbp), %rax
	movq	%rdx, %rcx
	movl	$16, %edx
	leaq	.LC57(%rip), %rsi
	movq	%rax, %rdi
	call	send_
	.loc 1 403 9
	movl	-30808(%rbp), %eax
	movslq	%eax, %rdx
	movq	-30784(%rbp), %rsi
	movq	-30832(%rbp), %rax
	movl	4(%rax), %eax
	movl	$0, %ecx
	movl	%eax, %edi
	call	send@PLT
	jmp	.L40
.L59:
	.loc 1 291 9
	nop
	jmp	.L40
.L60:
.LBB4:
	.loc 1 356 13
	nop
.L40:
.LBE4:
	.loc 1 405 1
	movq	-8(%rbp), %rax
	subq	%fs:40, %rax
	je	.L58
	call	__stack_chk_fail@PLT
.L58:
	leave
	.cfi_def_cfa 7, 8
	ret
	.cfi_endproc
.LFE11:
	.size	build_and_send_header, .-build_and_send_header
	.globl	build_for_og_server
	.type	build_for_og_server, @function
build_for_og_server:
.LFB12:
	.loc 1 407 74
	.cfi_startproc
	endbr64
	pushq	%rbp
	.cfi_def_cfa_offset 16
	.cfi_offset 6, -16
	movq	%rsp, %rbp
	.cfi_def_cfa_register 6
	subq	$16, %rsp
	movq	%rdi, -8(%rbp)
	movq	%rsi, -16(%rbp)
	.loc 1 411 8
	cmpq	$0, -8(%rbp)
	je	.L64
	.loc 1 415 23
	movq	-8(%rbp), %rax
	movl	96(%rax), %eax
	.loc 1 415 38
	andl	$1, %eax
	.loc 1 415 7
	testl	%eax, %eax
	jne	.L61
	.loc 1 416 9
	call	gettid@PLT
	.loc 1 416 9 is_stmt 0 discriminator 1
	movl	%eax, %esi
	leaq	.LC46(%rip), %rax
	movq	%rax, %rdi
	movl	$0, %eax
	call	printf@PLT
	.loc 1 417 69 is_stmt 1
	movq	-8(%rbp), %rax
	movl	96(%rax), %eax
	.loc 1 417 9
	movl	%eax, %esi
	movq	-16(%rbp), %rdx
	movq	-8(%rbp), %rax
	movq	%rdx, %rcx
	movl	%esi, %edx
	leaq	.LC47(%rip), %rsi
	movq	%rax, %rdi
	call	send_
	.loc 1 418 9
	jmp	.L61
.L64:
	.loc 1 412 9
	nop
.L61:
	.loc 1 427 1
	leave
	.cfi_def_cfa 7, 8
	ret
	.cfi_endproc
.LFE12:
	.size	build_for_og_server, .-build_for_og_server
.Letext0:
	.file 2 "/usr/lib/gcc/x86_64-linux-gnu/14/include/stddef.h"
	.file 3 "/usr/include/x86_64-linux-gnu/bits/types.h"
	.file 4 "/usr/include/stdio.h"
	.file 5 "/usr/include/x86_64-linux-gnu/bits/thread-shared-types.h"
	.file 6 "/usr/include/x86_64-linux-gnu/bits/struct_mutex.h"
	.file 7 "/usr/include/x86_64-linux-gnu/bits/pthreadtypes.h"
	.file 8 "/usr/include/unistd.h"
	.file 9 "/usr/include/x86_64-linux-gnu/bits/sockaddr.h"
	.file 10 "/usr/include/x86_64-linux-gnu/bits/socket.h"
	.file 11 "/usr/include/netdb.h"
	.file 12 "./common.h"
	.file 13 "/usr/include/x86_64-linux-gnu/sys/sendfile.h"
	.file 14 "/usr/include/x86_64-linux-gnu/bits/unistd_ext.h"
	.file 15 "/usr/include/errno.h"
	.file 16 "/usr/include/string.h"
	.file 17 "/usr/include/stdlib.h"
	.file 18 "/usr/include/fcntl.h"
	.file 19 "/usr/include/x86_64-linux-gnu/sys/socket.h"
	.section	.note.GNU-stack,"",@progbits
	.section	.note.gnu.property,"a"
	.align 8
	.long	1f - 0f
	.long	4f - 1f
	.long	5
0:
	.string	"GNU"
1:
	.align 8
	.long	0xc0000002
	.long	3f - 2f
2:
	.long	0x3
3:
	.align 8
4:
