	.file	"handle_req.c"
	.text
.Ltext0:
	.file 0 "/home/parth/Work/All_data/university/Network System/Assignments/PA4/server" "src/handle_req.c"
	.globl	get_in_addr
	.type	get_in_addr, @function
get_in_addr:
.LFB320:
	.file 1 "src/handle_req.c"
	.loc 1 49 1
	.cfi_startproc
	endbr64
	pushq	%rbp
	.cfi_def_cfa_offset 16
	.cfi_offset 6, -16
	movq	%rsp, %rbp
	.cfi_def_cfa_register 6
	movq	%rdi, -8(%rbp)
	.loc 1 50 11
	movq	-8(%rbp), %rax
	movzwl	(%rax), %eax
	.loc 1 50 8
	cmpw	$2, %ax
	jne	.L2
	.loc 1 52 16
	movq	-8(%rbp), %rax
	addq	$4, %rax
	jmp	.L3
.L2:
	.loc 1 55 12
	movq	-8(%rbp), %rax
	addq	$8, %rax
.L3:
	.loc 1 56 1
	popq	%rbp
	.cfi_def_cfa 7, 8
	ret
	.cfi_endproc
.LFE320:
	.size	get_in_addr, .-get_in_addr
	.section	.rodata
	.align 8
.LC0:
	.string	"\033[31m[-] Recv failed, error no: %d \n\033[0m"
	.align 8
.LC1:
	.string	"\033[33m[-] Client Closed the Connection, error no: %d \n\033[0m"
.LC2:
	.string	"%s/%s_%d"
.LC3:
	.string	"wb"
	.align 8
.LC4:
	.string	"\033[31m\n[-] Error opening file: %s\n\033[0m"
	.align 8
.LC5:
	.string	"\033[31m    Error: %s (code: %d)\n\n\033[0m"
	.align 8
.LC6:
	.string	"\033[31m[-] Num bytes read and write did not match \n\033[0m"
.LC7:
	.string	"ack\t\n0\t\n"
	.string	""
	.align 8
.LC8:
	.string	"\033[31m[-] Send failed, error no: %d \n\033[0m"
	.align 8
.LC9:
	.string	"\033[32m\n=========================================\n\033[0m"
.LC10:
	.string	"\033[32m    PUT SUCCESSFUL\n\033[0m"
.LC11:
	.string	"\033[32m    FILE: %s\n\033[0m"
	.align 8
.LC12:
	.string	"\033[32m    CHUNK: %d stored !\n\033[0m"
	.align 8
.LC13:
	.string	"\033[32m=========================================\n\n\033[0m"
.LC14:
	.string	"nack\t\n0\t\n"
	.string	""
	.align 8
.LC15:
	.string	"\033[31m\n=========================================\n\033[0m"
.LC16:
	.string	"\033[31m    PUT FAILED\n\033[0m"
.LC17:
	.string	"\033[31m    FILE: %s\n\033[0m"
	.align 8
.LC18:
	.string	"\033[31m    CHUNK: %d stored !\n\033[0m"
	.align 8
.LC19:
	.string	"\033[31m=========================================\n\n\033[0m"
	.text
	.globl	put_command
	.type	put_command, @function
put_command:
.LFB321:
	.loc 1 67 1
	.cfi_startproc
	endbr64
	pushq	%rbp
	.cfi_def_cfa_offset 16
	.cfi_offset 6, -16
	movq	%rsp, %rbp
	.cfi_def_cfa_register 6
	pushq	%rbx
	leaq	-28672(%rsp), %r11
.LPSRL0:
	subq	$4096, %rsp
	orq	$0, (%rsp)
	cmpq	%r11, %rsp
	jne	.LPSRL0
	subq	$2152, %rsp
	.cfi_offset 3, -24
	movq	%rdi, -30824(%rbp)
	movq	%rsi, -30832(%rbp)
	.loc 1 67 1
	movq	%fs:40, %rax
	movq	%rax, -24(%rbp)
	xorl	%eax, %eax
	.loc 1 68 9
	movl	$0, -30800(%rbp)
	.loc 1 68 23
	movl	$0, -30808(%rbp)
	.loc 1 68 40
	movl	$0, -30796(%rbp)
	.loc 1 70 9
	movl	$0, -30804(%rbp)
	.loc 1 74 5
	leaq	-30752(%rbp), %rax
	movl	$30720, %edx
	movl	$0, %esi
	movq	%rax, %rdi
	call	memset@PLT
.LBB2:
	.loc 1 75 16
	movq	-30832(%rbp), %rax
	movl	4(%rax), %eax
	movl	%eax, %edx
	movq	-30824(%rbp), %rax
	movl	4(%rax), %eax
	leaq	-30752(%rbp), %rsi
	movl	$0, %ecx
	movl	%eax, %edi
	call	recv@PLT
	.loc 1 75 16 is_stmt 0 discriminator 1
	movl	%eax, -30792(%rbp)
	cmpl	$0, -30792(%rbp)
	jns	.L5
	call	__errno_location@PLT
	movl	(%rax), %eax
	movl	%eax, %esi
	leaq	.LC0(%rip), %rax
	movq	%rax, %rdi
	movl	$0, %eax
	call	printf@PLT
	.loc 1 75 16 discriminator 2
	movq	-30824(%rbp), %rax
	movl	4(%rax), %eax
	movl	%eax, %edi
	call	close@PLT
	.loc 1 75 16
	jmp	.L6
.L5:
	.loc 1 75 16 discriminator 2
	cmpl	$0, -30792(%rbp)
	jne	.L7
	.loc 1 75 16 discriminator 3
	movq	-30824(%rbp), %rax
	movl	4(%rax), %eax
	movl	%eax, %edi
	call	close@PLT
	.loc 1 75 16 discriminator 1
	call	__errno_location@PLT
	.loc 1 75 16 discriminator 2
	movl	(%rax), %eax
	movl	%eax, %esi
	leaq	.LC1(%rip), %rax
	movq	%rax, %rdi
	movl	$0, %eax
	call	printf@PLT
	.loc 1 75 16
	jmp	.L6
.L7:
	.loc 1 75 16 discriminator 4
	movl	-30792(%rbp), %eax
.LBE2:
	.loc 1 75 14 is_stmt 1 discriminator 4
	movl	%eax, -30800(%rbp)
	.loc 1 77 21
	leaq	-30752(%rbp), %rax
	movl	$47, %esi
	movq	%rax, %rdi
	call	strrchr@PLT
	movq	%rax, -30768(%rbp)
	.loc 1 78 8
	cmpq	$0, -30768(%rbp)
	jne	.L8
	.loc 1 80 23
	leaq	-30752(%rbp), %rax
	movq	%rax, -30768(%rbp)
	jmp	.L9
.L8:
	.loc 1 84 22
	addq	$1, -30768(%rbp)
.L9:
	.loc 1 87 79
	movq	-30832(%rbp), %rax
	movzbl	1(%rax), %eax
	.loc 1 87 5
	movzbl	%al, %esi
	movq	-30824(%rbp), %rax
	movq	8(%rax), %rdx
	movq	-30768(%rbp), %rcx
	leaq	-30776(%rbp), %rax
	movl	%esi, %r8d
	leaq	.LC2(%rip), %rsi
	movq	%rax, %rdi
	movl	$0, %eax
	call	asprintf@PLT
	.loc 1 89 16
	movq	-30776(%rbp), %rax
	leaq	.LC3(%rip), %rdx
	movq	%rdx, %rsi
	movq	%rax, %rdi
	call	fopen@PLT
	movq	%rax, -30760(%rbp)
	.loc 1 90 8
	cmpq	$0, -30760(%rbp)
	jne	.L11
	.loc 1 92 9
	movq	-30776(%rbp), %rdx
	movq	stderr(%rip), %rax
	leaq	.LC4(%rip), %rcx
	movq	%rcx, %rsi
	movq	%rax, %rdi
	movl	$0, %eax
	call	fprintf@PLT
	.loc 1 93 84
	call	__errno_location@PLT
	.loc 1 93 9 discriminator 1
	movl	(%rax), %ebx
	.loc 1 93 76 discriminator 1
	call	__errno_location@PLT
	.loc 1 93 9 discriminator 2
	movl	(%rax), %eax
	movl	%eax, %edi
	call	strerror@PLT
	movq	%rax, %rdx
	.loc 1 93 9 is_stmt 0 discriminator 3
	movq	stderr(%rip), %rax
	movl	%ebx, %ecx
	leaq	.LC5(%rip), %rsi
	movq	%rax, %rdi
	movl	$0, %eax
	call	fprintf@PLT
	.loc 1 94 16 is_stmt 1
	movl	$-1, -30804(%rbp)
	.loc 1 95 9
	jmp	.L6
.L16:
	.loc 1 100 9
	leaq	-30752(%rbp), %rax
	movl	$30720, %edx
	movl	$0, %esi
	movq	%rax, %rdi
	call	memset@PLT
.LBB3:
	.loc 1 101 20
	movq	-30832(%rbp), %rax
	movl	8(%rax), %eax
	movl	%eax, %edx
	movq	-30824(%rbp), %rax
	movl	4(%rax), %eax
	leaq	-30752(%rbp), %rsi
	movl	$0, %ecx
	movl	%eax, %edi
	call	recv@PLT
	.loc 1 101 20 is_stmt 0 discriminator 1
	movl	%eax, -30788(%rbp)
	cmpl	$0, -30788(%rbp)
	jns	.L12
	call	__errno_location@PLT
	movl	(%rax), %eax
	movl	%eax, %esi
	leaq	.LC0(%rip), %rax
	movq	%rax, %rdi
	movl	$0, %eax
	call	printf@PLT
	.loc 1 101 20 discriminator 2
	movq	-30824(%rbp), %rax
	movl	4(%rax), %eax
	movl	%eax, %edi
	call	close@PLT
	.loc 1 101 20
	jmp	.L6
.L12:
	.loc 1 101 20 discriminator 2
	cmpl	$0, -30788(%rbp)
	jne	.L13
	.loc 1 101 20 discriminator 3
	movq	-30824(%rbp), %rax
	movl	4(%rax), %eax
	movl	%eax, %edi
	call	close@PLT
	.loc 1 101 20 discriminator 1
	call	__errno_location@PLT
	.loc 1 101 20 discriminator 2
	movl	(%rax), %eax
	movl	%eax, %esi
	leaq	.LC1(%rip), %rax
	movq	%rax, %rdi
	movl	$0, %eax
	call	printf@PLT
	.loc 1 101 20
	jmp	.L6
.L13:
	.loc 1 101 20 discriminator 4
	movl	-30788(%rbp), %eax
.LBE3:
	.loc 1 101 18 is_stmt 1 discriminator 4
	movl	%eax, -30800(%rbp)
	.loc 1 102 22
	movl	-30800(%rbp), %eax
	movslq	%eax, %rsi
	movq	-30760(%rbp), %rdx
	leaq	-30752(%rbp), %rax
	movq	%rdx, %rcx
	movl	$1, %edx
	movq	%rax, %rdi
	call	fwrite@PLT
	.loc 1 102 20 discriminator 1
	movl	%eax, -30796(%rbp)
	.loc 1 104 36
	movl	-30796(%rbp), %eax
	imull	-30800(%rbp), %eax
	.loc 1 104 12
	cmpl	%eax, -30800(%rbp)
	je	.L14
	.loc 1 106 13
	movq	stderr(%rip), %rax
	movq	%rax, %rcx
	movl	$53, %edx
	movl	$1, %esi
	leaq	.LC6(%rip), %rax
	movq	%rax, %rdi
	call	fwrite@PLT
	.loc 1 107 20
	movl	$-1, -30804(%rbp)
	.loc 1 108 13
	jmp	.L15
.L14:
	.loc 1 110 21
	movl	-30800(%rbp), %eax
	addl	%eax, -30808(%rbp)
.L11:
	.loc 1 98 40
	movq	-30832(%rbp), %rax
	movl	8(%rax), %eax
	.loc 1 98 24
	movl	-30808(%rbp), %edx
	cmpl	%eax, %edx
	jb	.L16
.L15:
	.loc 1 114 8
	cmpl	$0, -30804(%rbp)
	js	.L17
.LBB4:
	.loc 1 116 20
	movq	-30824(%rbp), %rax
	movl	4(%rax), %eax
	movl	$0, %ecx
	movl	$7, %edx
	leaq	.LC7(%rip), %rsi
	movl	%eax, %edi
	call	send@PLT
	.loc 1 116 20 is_stmt 0 discriminator 1
	movl	%eax, -30780(%rbp)
	cmpl	$0, -30780(%rbp)
	jg	.L18
	call	__errno_location@PLT
	movl	(%rax), %eax
	movl	%eax, %esi
	leaq	.LC8(%rip), %rax
	movq	%rax, %rdi
	movl	$0, %eax
	call	printf@PLT
	.loc 1 116 20 discriminator 2
	movq	-30824(%rbp), %rax
	movl	4(%rax), %eax
	movl	%eax, %edi
	call	close@PLT
	.loc 1 116 20
	jmp	.L6
.L18:
	.loc 1 116 20 discriminator 2
	movl	-30780(%rbp), %eax
.LBE4:
	.loc 1 116 18 is_stmt 1 discriminator 2
	movl	%eax, -30800(%rbp)
	.loc 1 117 9
	leaq	.LC9(%rip), %rax
	movq	%rax, %rdi
	movl	$0, %eax
	call	printf@PLT
	.loc 1 118 9
	leaq	.LC10(%rip), %rax
	movq	%rax, %rdi
	movl	$0, %eax
	call	printf@PLT
	.loc 1 119 9
	movq	-30776(%rbp), %rax
	movq	%rax, %rsi
	leaq	.LC11(%rip), %rax
	movq	%rax, %rdi
	movl	$0, %eax
	call	printf@PLT
	.loc 1 120 68
	movq	-30832(%rbp), %rax
	movzbl	1(%rax), %eax
	.loc 1 120 9
	movzbl	%al, %eax
	movl	%eax, %esi
	leaq	.LC12(%rip), %rax
	movq	%rax, %rdi
	movl	$0, %eax
	call	printf@PLT
	.loc 1 121 9
	leaq	.LC13(%rip), %rax
	movq	%rax, %rdi
	movl	$0, %eax
	call	printf@PLT
	jmp	.L6
.L17:
.LBB5:
	.loc 1 126 20
	movq	-30824(%rbp), %rax
	movl	4(%rax), %eax
	movl	$0, %ecx
	movl	$8, %edx
	leaq	.LC14(%rip), %rsi
	movl	%eax, %edi
	call	send@PLT
	.loc 1 126 20 is_stmt 0 discriminator 1
	movl	%eax, -30784(%rbp)
	cmpl	$0, -30784(%rbp)
	jg	.L19
	call	__errno_location@PLT
	movl	(%rax), %eax
	movl	%eax, %esi
	leaq	.LC8(%rip), %rax
	movq	%rax, %rdi
	movl	$0, %eax
	call	printf@PLT
	.loc 1 126 20 discriminator 2
	movq	-30824(%rbp), %rax
	movl	4(%rax), %eax
	movl	%eax, %edi
	call	close@PLT
	.loc 1 126 20
	jmp	.L6
.L19:
	.loc 1 126 20 discriminator 2
	movl	-30784(%rbp), %eax
.LBE5:
	.loc 1 126 18 is_stmt 1 discriminator 2
	movl	%eax, -30800(%rbp)
	.loc 1 127 9
	leaq	.LC15(%rip), %rax
	movq	%rax, %rdi
	movl	$0, %eax
	call	printf@PLT
	.loc 1 128 9
	leaq	.LC16(%rip), %rax
	movq	%rax, %rdi
	movl	$0, %eax
	call	printf@PLT
	.loc 1 129 9
	movq	-30776(%rbp), %rax
	movq	%rax, %rsi
	leaq	.LC17(%rip), %rax
	movq	%rax, %rdi
	movl	$0, %eax
	call	printf@PLT
	.loc 1 130 68
	movq	-30832(%rbp), %rax
	movzbl	1(%rax), %eax
	.loc 1 130 9
	movzbl	%al, %eax
	movl	%eax, %esi
	leaq	.LC18(%rip), %rax
	movq	%rax, %rdi
	movl	$0, %eax
	call	printf@PLT
	.loc 1 131 9
	leaq	.LC19(%rip), %rax
	movq	%rax, %rdi
	movl	$0, %eax
	call	printf@PLT
.L6:
	.loc 1 135 5
	movq	-30776(%rbp), %rax
	movq	%rax, %rdi
	call	free@PLT
	.loc 1 136 5
	movq	-30760(%rbp), %rax
	movq	%rax, %rdi
	call	fclose@PLT
	.loc 1 137 1
	nop
	movq	-24(%rbp), %rax
	subq	%fs:40, %rax
	je	.L20
	call	__stack_chk_fail@PLT
.L20:
	movq	-8(%rbp), %rbx
	leave
	.cfi_def_cfa 7, 8
	ret
	.cfi_endproc
.LFE321:
	.size	put_command, .-put_command
	.section	.rodata
.LC20:
	.string	"rb"
.LC21:
	.string	"Reading failed "
.LC22:
	.string	"file size %d \n"
.LC23:
	.string	"send bytes:%d\n"
	.align 8
.LC24:
	.string	"\033[32m    GET FILE SUCCESSFUL\n\033[0m"
	.align 8
.LC25:
	.string	"\033[32m    CHUNK: %d sent !\n\033[0m"
.LC26:
	.string	"\033[31m    GET FAILED\n\033[0m"
	.text
	.globl	get_command
	.type	get_command, @function
get_command:
.LFB322:
	.loc 1 140 1
	.cfi_startproc
	endbr64
	pushq	%rbp
	.cfi_def_cfa_offset 16
	.cfi_offset 6, -16
	movq	%rsp, %rbp
	.cfi_def_cfa_register 6
	leaq	-61440(%rsp), %r11
.LPSRL1:
	subq	$4096, %rsp
	orq	$0, (%rsp)
	cmpq	%r11, %rsp
	jne	.LPSRL1
	addq	$-128, %rsp
	movq	%rdi, -61560(%rbp)
	movq	%rsi, -61568(%rbp)
	.loc 1 140 1
	movq	%fs:40, %rax
	movq	%rax, -8(%rbp)
	xorl	%eax, %eax
	.loc 1 141 9
	movl	$0, -61536(%rbp)
	.loc 1 141 23
	movl	$0, -61540(%rbp)
	.loc 1 141 40
	movl	$0, -61532(%rbp)
	.loc 1 144 9
	movl	$0, -61528(%rbp)
	.loc 1 148 5
	leaq	-61456(%rbp), %rax
	movl	$30720, %edx
	movl	$0, %esi
	movq	%rax, %rdi
	call	memset@PLT
.LBB6:
	.loc 1 149 16
	movq	-61568(%rbp), %rax
	movl	4(%rax), %eax
	movl	%eax, %edx
	movq	-61560(%rbp), %rax
	movl	4(%rax), %eax
	leaq	-61456(%rbp), %rsi
	movl	$0, %ecx
	movl	%eax, %edi
	call	recv@PLT
	.loc 1 149 16 is_stmt 0 discriminator 1
	movl	%eax, -61524(%rbp)
	cmpl	$0, -61524(%rbp)
	jns	.L22
	call	__errno_location@PLT
	movl	(%rax), %eax
	movl	%eax, %esi
	leaq	.LC0(%rip), %rax
	movq	%rax, %rdi
	movl	$0, %eax
	call	printf@PLT
	.loc 1 149 16 discriminator 2
	movq	-61560(%rbp), %rax
	movl	4(%rax), %eax
	movl	%eax, %edi
	call	close@PLT
	.loc 1 149 16
	jmp	.L23
.L22:
	.loc 1 149 16 discriminator 2
	cmpl	$0, -61524(%rbp)
	jne	.L24
	.loc 1 149 16 discriminator 3
	movq	-61560(%rbp), %rax
	movl	4(%rax), %eax
	movl	%eax, %edi
	call	close@PLT
	.loc 1 149 16 discriminator 1
	call	__errno_location@PLT
	.loc 1 149 16 discriminator 2
	movl	(%rax), %eax
	movl	%eax, %esi
	leaq	.LC1(%rip), %rax
	movq	%rax, %rdi
	movl	$0, %eax
	call	printf@PLT
	.loc 1 149 16
	jmp	.L23
.L24:
	.loc 1 149 16 discriminator 4
	movl	-61524(%rbp), %eax
.LBE6:
	.loc 1 149 14 is_stmt 1 discriminator 4
	movl	%eax, -61536(%rbp)
	.loc 1 151 21
	leaq	-61456(%rbp), %rax
	movl	$47, %esi
	movq	%rax, %rdi
	call	strrchr@PLT
	movq	%rax, -61488(%rbp)
	.loc 1 152 8
	cmpq	$0, -61488(%rbp)
	jne	.L25
	.loc 1 154 23
	leaq	-61456(%rbp), %rax
	movq	%rax, -61488(%rbp)
	jmp	.L26
.L25:
	.loc 1 158 22
	addq	$1, -61488(%rbp)
.L26:
	.loc 1 161 79
	movq	-61568(%rbp), %rax
	movzbl	1(%rax), %eax
	.loc 1 161 5
	movzbl	%al, %esi
	movq	-61560(%rbp), %rax
	movq	8(%rax), %rdx
	movq	-61488(%rbp), %rcx
	leaq	-61496(%rbp), %rax
	movl	%esi, %r8d
	leaq	.LC2(%rip), %rsi
	movq	%rax, %rdi
	movl	$0, %eax
	call	asprintf@PLT
	.loc 1 163 16
	movq	-61496(%rbp), %rax
	leaq	.LC20(%rip), %rdx
	movq	%rdx, %rsi
	movq	%rax, %rdi
	call	fopen@PLT
	movq	%rax, -61480(%rbp)
	.loc 1 164 8
	cmpq	$0, -61480(%rbp)
	jne	.L27
	.loc 1 166 9
	leaq	.LC21(%rip), %rax
	movq	%rax, %rdi
	call	puts@PLT
.LBB7:
	.loc 1 167 20
	movq	-61560(%rbp), %rax
	movl	4(%rax), %eax
	movl	$0, %ecx
	movl	$8, %edx
	leaq	.LC14(%rip), %rsi
	movl	%eax, %edi
	call	send@PLT
	.loc 1 167 20 is_stmt 0 discriminator 1
	movl	%eax, -61500(%rbp)
	cmpl	$0, -61500(%rbp)
	jg	.L28
	call	__errno_location@PLT
	movl	(%rax), %eax
	movl	%eax, %esi
	leaq	.LC8(%rip), %rax
	movq	%rax, %rdi
	movl	$0, %eax
	call	printf@PLT
	.loc 1 167 20 discriminator 2
	movq	-61560(%rbp), %rax
	movl	4(%rax), %eax
	movl	%eax, %edi
	call	close@PLT
	.loc 1 167 20
	jmp	.L23
.L28:
	.loc 1 167 20 discriminator 2
	movl	-61500(%rbp), %eax
.LBE7:
	.loc 1 167 18 is_stmt 1 discriminator 2
	movl	%eax, -61536(%rbp)
	.loc 1 168 16
	movl	$-1, -61528(%rbp)
	.loc 1 169 9
	movq	-61496(%rbp), %rax
	movq	%rax, %rdi
	call	free@PLT
	jmp	.L21
.L27:
	.loc 1 173 5
	movq	-61480(%rbp), %rax
	movl	$2, %edx
	movl	$0, %esi
	movq	%rax, %rdi
	call	fseek@PLT
	.loc 1 174 21
	movq	-61480(%rbp), %rax
	movq	%rax, %rdi
	call	ftell@PLT
	.loc 1 174 9 discriminator 1
	movl	%eax, -61520(%rbp)
	.loc 1 175 5
	movq	-61480(%rbp), %rax
	movl	$0, %edx
	movl	$0, %esi
	movq	%rax, %rdi
	call	fseek@PLT
	.loc 1 177 5
	movl	-61520(%rbp), %eax
	movl	%eax, %esi
	leaq	.LC22(%rip), %rax
	movq	%rax, %rdi
	movl	$0, %eax
	call	printf@PLT
.LBB8:
	.loc 1 179 16
	movq	-61560(%rbp), %rax
	movl	4(%rax), %eax
	movl	$0, %ecx
	movl	$7, %edx
	leaq	.LC7(%rip), %rsi
	movl	%eax, %edi
	call	send@PLT
	.loc 1 179 16 is_stmt 0 discriminator 1
	movl	%eax, -61516(%rbp)
	cmpl	$0, -61516(%rbp)
	jg	.L30
	call	__errno_location@PLT
	movl	(%rax), %eax
	movl	%eax, %esi
	leaq	.LC8(%rip), %rax
	movq	%rax, %rdi
	movl	$0, %eax
	call	printf@PLT
	.loc 1 179 16 discriminator 2
	movq	-61560(%rbp), %rax
	movl	4(%rax), %eax
	movl	%eax, %edi
	call	close@PLT
	.loc 1 179 16
	jmp	.L23
.L30:
	.loc 1 179 16 discriminator 2
	movl	-61516(%rbp), %eax
.LBE8:
	.loc 1 179 14 is_stmt 1 discriminator 2
	movl	%eax, -61536(%rbp)
	.loc 1 181 22
	movb	$0, -61468(%rbp)
	.loc 1 183 35
	movq	-61568(%rbp), %rax
	movzbl	1(%rax), %eax
	.loc 1 181 22
	movb	%al, -61467(%rbp)
	.loc 1 184 28
	movq	-61496(%rbp), %rax
	movq	%rax, %rdi
	call	strlen@PLT
	.loc 1 181 22
	movl	%eax, -61464(%rbp)
	movl	-61520(%rbp), %eax
	movl	%eax, -61460(%rbp)
	.loc 1 187 5
	leaq	-30736(%rbp), %rax
	movl	$30720, %edx
	movl	$0, %esi
	movq	%rax, %rdi
	call	memset@PLT
	.loc 1 189 5
	leaq	-61468(%rbp), %rcx
	leaq	-30736(%rbp), %rax
	movl	$12, %edx
	movq	%rcx, %rsi
	movq	%rax, %rdi
	call	memcpy@PLT
.LBB9:
	.loc 1 190 16
	movq	-61560(%rbp), %rax
	movl	4(%rax), %eax
	leaq	-30736(%rbp), %rsi
	movl	$0, %ecx
	movl	$12, %edx
	movl	%eax, %edi
	call	send@PLT
	.loc 1 190 16 is_stmt 0 discriminator 1
	movl	%eax, -61512(%rbp)
	cmpl	$0, -61512(%rbp)
	jg	.L31
	call	__errno_location@PLT
	movl	(%rax), %eax
	movl	%eax, %esi
	leaq	.LC8(%rip), %rax
	movq	%rax, %rdi
	movl	$0, %eax
	call	printf@PLT
	.loc 1 190 16 discriminator 2
	movq	-61560(%rbp), %rax
	movl	4(%rax), %eax
	movl	%eax, %edi
	call	close@PLT
	.loc 1 190 16
	jmp	.L23
.L31:
	.loc 1 190 16 discriminator 2
	movl	-61512(%rbp), %eax
.LBE9:
	.loc 1 190 14 is_stmt 1 discriminator 2
	movl	%eax, -61536(%rbp)
	.loc 1 191 17
	movl	$0, -61540(%rbp)
	.loc 1 192 11
	jmp	.L32
.L34:
	.loc 1 194 9
	leaq	-30736(%rbp), %rax
	movl	$30720, %edx
	movl	$0, %esi
	movq	%rax, %rdi
	call	memset@PLT
	.loc 1 195 20
	movl	-61520(%rbp), %eax
	movslq	%eax, %rdx
	movq	-61480(%rbp), %rcx
	leaq	-30736(%rbp), %rax
	movl	$1, %esi
	movq	%rax, %rdi
	call	fread@PLT
	.loc 1 195 18 discriminator 1
	movl	%eax, -61536(%rbp)
.LBB10:
	.loc 1 196 20
	movl	-61536(%rbp), %eax
	movslq	%eax, %rdx
	movq	-61560(%rbp), %rax
	movl	4(%rax), %eax
	leaq	-30736(%rbp), %rsi
	movl	$0, %ecx
	movl	%eax, %edi
	call	send@PLT
	.loc 1 196 20 is_stmt 0 discriminator 1
	movl	%eax, -61504(%rbp)
	cmpl	$0, -61504(%rbp)
	jg	.L33
	call	__errno_location@PLT
	movl	(%rax), %eax
	movl	%eax, %esi
	leaq	.LC8(%rip), %rax
	movq	%rax, %rdi
	movl	$0, %eax
	call	printf@PLT
	.loc 1 196 20 discriminator 2
	movq	-61560(%rbp), %rax
	movl	4(%rax), %eax
	movl	%eax, %edi
	call	close@PLT
	.loc 1 196 20
	jmp	.L23
.L33:
	.loc 1 196 20 discriminator 2
	movl	-61504(%rbp), %eax
.LBE10:
	.loc 1 196 18 is_stmt 1 discriminator 2
	movl	%eax, -61536(%rbp)
	.loc 1 197 9
	movl	-61536(%rbp), %eax
	movl	%eax, %esi
	leaq	.LC23(%rip), %rax
	movq	%rax, %rdi
	movl	$0, %eax
	call	printf@PLT
	.loc 1 199 21
	movl	-61536(%rbp), %eax
	addl	%eax, -61540(%rbp)
.L32:
	.loc 1 192 24
	movl	-61540(%rbp), %eax
	cmpl	-61520(%rbp), %eax
	jl	.L34
	.loc 1 202 5
	leaq	-61456(%rbp), %rax
	movl	$30720, %edx
	movl	$0, %esi
	movq	%rax, %rdi
	call	memset@PLT
.LBB11:
	.loc 1 203 16
	movq	-61560(%rbp), %rax
	movl	4(%rax), %eax
	leaq	-61456(%rbp), %rsi
	movl	$0, %ecx
	movl	$30720, %edx
	movl	%eax, %edi
	call	recv@PLT
	.loc 1 203 16 is_stmt 0 discriminator 1
	movl	%eax, -61508(%rbp)
	cmpl	$0, -61508(%rbp)
	jns	.L35
	call	__errno_location@PLT
	movl	(%rax), %eax
	movl	%eax, %esi
	leaq	.LC0(%rip), %rax
	movq	%rax, %rdi
	movl	$0, %eax
	call	printf@PLT
	.loc 1 203 16 discriminator 2
	movq	-61560(%rbp), %rax
	movl	4(%rax), %eax
	movl	%eax, %edi
	call	close@PLT
	.loc 1 203 16
	jmp	.L23
.L35:
	.loc 1 203 16 discriminator 2
	cmpl	$0, -61508(%rbp)
	jne	.L36
	.loc 1 203 16 discriminator 3
	movq	-61560(%rbp), %rax
	movl	4(%rax), %eax
	movl	%eax, %edi
	call	close@PLT
	.loc 1 203 16 discriminator 1
	call	__errno_location@PLT
	.loc 1 203 16 discriminator 2
	movl	(%rax), %eax
	movl	%eax, %esi
	leaq	.LC1(%rip), %rax
	movq	%rax, %rdi
	movl	$0, %eax
	call	printf@PLT
	.loc 1 203 16
	jmp	.L23
.L36:
	.loc 1 203 16 discriminator 4
	movl	-61508(%rbp), %eax
.LBE11:
	.loc 1 203 14 is_stmt 1 discriminator 4
	movl	%eax, -61536(%rbp)
	.loc 1 204 9
	leaq	-61456(%rbp), %rax
	movl	$7, %edx
	leaq	.LC7(%rip), %rcx
	movq	%rcx, %rsi
	movq	%rax, %rdi
	call	strncmp@PLT
	.loc 1 204 8 discriminator 1
	testl	%eax, %eax
	jne	.L37
	.loc 1 206 9
	leaq	.LC9(%rip), %rax
	movq	%rax, %rdi
	movl	$0, %eax
	call	printf@PLT
	.loc 1 207 9
	leaq	.LC24(%rip), %rax
	movq	%rax, %rdi
	movl	$0, %eax
	call	printf@PLT
	.loc 1 208 9
	movq	-61496(%rbp), %rax
	movq	%rax, %rsi
	leaq	.LC11(%rip), %rax
	movq	%rax, %rdi
	movl	$0, %eax
	call	printf@PLT
	.loc 1 209 66
	movq	-61568(%rbp), %rax
	movzbl	1(%rax), %eax
	.loc 1 209 9
	movzbl	%al, %eax
	movl	%eax, %esi
	leaq	.LC25(%rip), %rax
	movq	%rax, %rdi
	movl	$0, %eax
	call	printf@PLT
	.loc 1 210 9
	leaq	.LC13(%rip), %rax
	movq	%rax, %rdi
	movl	$0, %eax
	call	printf@PLT
	jmp	.L23
.L37:
	.loc 1 214 9
	leaq	.LC15(%rip), %rax
	movq	%rax, %rdi
	movl	$0, %eax
	call	printf@PLT
	.loc 1 215 9
	leaq	.LC26(%rip), %rax
	movq	%rax, %rdi
	movl	$0, %eax
	call	printf@PLT
	.loc 1 216 9
	movq	-61496(%rbp), %rax
	movq	%rax, %rsi
	leaq	.LC17(%rip), %rax
	movq	%rax, %rdi
	movl	$0, %eax
	call	printf@PLT
	.loc 1 217 68
	movq	-61568(%rbp), %rax
	movzbl	1(%rax), %eax
	.loc 1 217 9
	movzbl	%al, %eax
	movl	%eax, %esi
	leaq	.LC18(%rip), %rax
	movq	%rax, %rdi
	movl	$0, %eax
	call	printf@PLT
	.loc 1 218 9
	leaq	.LC19(%rip), %rax
	movq	%rax, %rdi
	movl	$0, %eax
	call	printf@PLT
.L23:
	.loc 1 225 5
	movq	-61496(%rbp), %rax
	movq	%rax, %rdi
	call	free@PLT
	.loc 1 226 5
	movq	-61480(%rbp), %rax
	movq	%rax, %rdi
	call	fclose@PLT
.L21:
	.loc 1 227 1
	movq	-8(%rbp), %rax
	subq	%fs:40, %rax
	je	.L38
	call	__stack_chk_fail@PLT
.L38:
	leave
	.cfi_def_cfa 7, 8
	ret
	.cfi_endproc
.LFE322:
	.size	get_command, .-get_command
	.section	.rodata
	.align 8
.LC27:
	.string	"\033[36m\n=========================================\n\033[0m"
	.align 8
.LC28:
	.string	"\033[36m    PROCESSING LIST COMMAND\n\033[0m"
	.align 8
.LC29:
	.string	"\033[36m    Server directory: %s\n\033[0m"
	.align 8
.LC30:
	.string	"\033[36m=========================================\n\n\033[0m"
	.align 8
.LC31:
	.string	"\033[32m\n[+] Directory listing completed successfully\n\n\033[0m"
	.text
	.globl	ls_command
	.type	ls_command, @function
ls_command:
.LFB323:
	.loc 1 230 1
	.cfi_startproc
	endbr64
	pushq	%rbp
	.cfi_def_cfa_offset 16
	.cfi_offset 6, -16
	movq	%rsp, %rbp
	.cfi_def_cfa_register 6
	leaq	-28672(%rsp), %r11
.LPSRL2:
	subq	$4096, %rsp
	orq	$0, (%rsp)
	cmpq	%r11, %rsp
	jne	.LPSRL2
	subq	$2096, %rsp
	movq	%rdi, -30760(%rbp)
	movq	%rsi, -30768(%rbp)
	.loc 1 230 1
	movq	%fs:40, %rax
	movq	%rax, -8(%rbp)
	xorl	%eax, %eax
	.loc 1 231 5
	leaq	.LC27(%rip), %rax
	movq	%rax, %rdi
	movl	$0, %eax
	call	printf@PLT
	.loc 1 232 5
	leaq	.LC28(%rip), %rax
	movq	%rax, %rdi
	movl	$0, %eax
	call	printf@PLT
	.loc 1 233 5
	movq	-30760(%rbp), %rax
	movq	8(%rax), %rax
	movq	%rax, %rsi
	leaq	.LC29(%rip), %rax
	movq	%rax, %rdi
	movl	$0, %eax
	call	printf@PLT
	.loc 1 234 5
	leaq	.LC30(%rip), %rax
	movq	%rax, %rdi
	movl	$0, %eax
	call	printf@PLT
	.loc 1 236 9
	movl	$0, -30740(%rbp)
	.loc 1 240 26
	movq	-30760(%rbp), %rax
	movq	8(%rax), %rdx
	.loc 1 240 5
	movq	-30760(%rbp), %rax
	movq	%rdx, %rsi
	movq	%rax, %rdi
	call	list_directory
	.loc 1 243 5
	movq	-30760(%rbp), %rax
	movl	4(%rax), %eax
	movl	$0, %ecx
	movl	$7, %edx
	leaq	.LC7(%rip), %rsi
	movl	%eax, %edi
	call	send@PLT
	.loc 1 245 5
	leaq	.LC31(%rip), %rax
	movq	%rax, %rdi
	movl	$0, %eax
	call	printf@PLT
	.loc 1 246 1
	nop
	movq	-8(%rbp), %rax
	subq	%fs:40, %rax
	je	.L40
	call	__stack_chk_fail@PLT
.L40:
	leave
	.cfi_def_cfa 7, 8
	ret
	.cfi_endproc
.LFE323:
	.size	ls_command, .-ls_command
	.section	.rodata
	.align 8
.LC32:
	.string	"\033[36m[*] Scanning directory: %s\n\033[0m"
	.align 8
.LC33:
	.string	"\033[31m[-] Failed to open directory: %s\n\033[0m"
.LC34:
	.string	"."
.LC35:
	.string	".."
.LC36:
	.string	"%s/%s"
	.align 8
.LC37:
	.string	"\033[31m[-] Failed to get file status: %s\n\033[0m"
.LC38:
	.string	"%s"
	.align 8
.LC39:
	.string	"\033[32m[+] Found chunk file: %s (Chunk ID: %d)\n\033[0m"
	.text
	.globl	list_directory
	.type	list_directory, @function
list_directory:
.LFB324:
	.loc 1 255 1
	.cfi_startproc
	endbr64
	pushq	%rbp
	.cfi_def_cfa_offset 16
	.cfi_offset 6, -16
	movq	%rsp, %rbp
	.cfi_def_cfa_register 6
	pushq	%rbx
	subq	$4096, %rsp
	orq	$0, (%rsp)
	subq	$4096, %rsp
	orq	$0, (%rsp)
	subq	$232, %rsp
	.cfi_offset 3, -24
	movq	%rdi, -8424(%rbp)
	movq	%rsi, -8432(%rbp)
	.loc 1 255 1
	movq	%fs:40, %rax
	movq	%rax, -24(%rbp)
	xorl	%eax, %eax
	.loc 1 262 5
	movq	-8432(%rbp), %rax
	movq	%rax, %rsi
	leaq	.LC32(%rip), %rax
	movq	%rax, %rdi
	movl	$0, %eax
	call	printf@PLT
	.loc 1 264 10
	movq	-8432(%rbp), %rax
	movq	%rax, %rdi
	call	opendir@PLT
	movq	%rax, -8408(%rbp)
	.loc 1 265 8
	cmpq	$0, -8408(%rbp)
	jne	.L44
	.loc 1 267 9
	movq	stderr(%rip), %rax
	movq	-8432(%rbp), %rdx
	leaq	.LC33(%rip), %rcx
	movq	%rcx, %rsi
	movq	%rax, %rdi
	movl	$0, %eax
	call	fprintf@PLT
	.loc 1 268 84
	call	__errno_location@PLT
	.loc 1 268 9 discriminator 1
	movl	(%rax), %ebx
	.loc 1 268 76 discriminator 1
	call	__errno_location@PLT
	.loc 1 268 9 discriminator 2
	movl	(%rax), %eax
	movl	%eax, %edi
	call	strerror@PLT
	movq	%rax, %rdx
	.loc 1 268 9 is_stmt 0 discriminator 3
	movq	stderr(%rip), %rax
	movl	%ebx, %ecx
	leaq	.LC5(%rip), %rsi
	movq	%rax, %rdi
	movl	$0, %eax
	call	fprintf@PLT
	jmp	.L41
.L51:
.LBB12:
	.loc 1 275 25 is_stmt 1
	movq	-8400(%rbp), %rax
	addq	$19, %rax
	.loc 1 275 13
	leaq	.LC34(%rip), %rdx
	movq	%rdx, %rsi
	movq	%rax, %rdi
	call	strcmp@PLT
	.loc 1 275 12 discriminator 1
	testl	%eax, %eax
	je	.L53
	.loc 1 275 60 discriminator 2
	movq	-8400(%rbp), %rax
	addq	$19, %rax
	.loc 1 275 48 discriminator 2
	leaq	.LC35(%rip), %rdx
	movq	%rdx, %rsi
	movq	%rax, %rdi
	call	strcmp@PLT
	.loc 1 275 45 discriminator 1
	testl	%eax, %eax
	je	.L53
	.loc 1 282 75
	movq	-8400(%rbp), %rax
	leaq	19(%rax), %rcx
	.loc 1 282 9
	movq	-8432(%rbp), %rdx
	leaq	-8224(%rbp), %rax
	movq	%rcx, %r8
	movq	%rdx, %rcx
	leaq	.LC36(%rip), %rdx
	movl	$4096, %esi
	movq	%rax, %rdi
	movl	$0, %eax
	call	snprintf@PLT
	.loc 1 285 13
	leaq	-8368(%rbp), %rdx
	leaq	-8224(%rbp), %rax
	movq	%rdx, %rsi
	movq	%rax, %rdi
	call	stat@PLT
	.loc 1 285 12 discriminator 1
	testl	%eax, %eax
	jns	.L48
	.loc 1 287 13
	movq	stderr(%rip), %rax
	leaq	-8224(%rbp), %rdx
	leaq	.LC37(%rip), %rcx
	movq	%rcx, %rsi
	movq	%rax, %rdi
	movl	$0, %eax
	call	fprintf@PLT
	.loc 1 288 13
	jmp	.L44
.L48:
	.loc 1 292 13
	movl	-8344(%rbp), %eax
	andl	$61440, %eax
	.loc 1 292 12
	cmpl	$32768, %eax
	jne	.L44
.LBB13:
	.loc 1 295 50
	movq	-8400(%rbp), %rax
	addq	$19, %rax
	.loc 1 295 37
	movl	$95, %esi
	movq	%rax, %rdi
	call	strrchr@PLT
	movq	%rax, -8392(%rbp)
	.loc 1 296 16
	cmpq	$0, -8392(%rbp)
	je	.L44
	.loc 1 296 44 discriminator 1
	call	__ctype_b_loc@PLT
	movq	(%rax), %rax
	movq	-8392(%rbp), %rdx
	addq	$1, %rdx
	movzbl	(%rdx), %edx
	movsbq	%dl, %rdx
	addq	%rdx, %rdx
	addq	%rdx, %rax
	movzwl	(%rax), %eax
	movzwl	%ax, %eax
	andl	$2048, %eax
	.loc 1 296 41 discriminator 1
	testl	%eax, %eax
	je	.L44
.LBB14:
	.loc 1 302 67
	movq	-8400(%rbp), %rax
	leaq	19(%rax), %rdx
	.loc 1 302 17
	leaq	-4128(%rbp), %rax
	movq	%rdx, %rcx
	leaq	.LC38(%rip), %rdx
	movl	$4096, %esi
	movq	%rax, %rdi
	movl	$0, %eax
	call	snprintf@PLT
	.loc 1 305 53
	movq	-8392(%rbp), %rax
	addq	$1, %rax
	.loc 1 305 32
	movq	%rax, %rdi
	call	atoi@PLT
	movl	%eax, -8412(%rbp)
	.loc 1 307 17
	movl	-8412(%rbp), %edx
	leaq	-4128(%rbp), %rax
	movq	%rax, %rsi
	leaq	.LC39(%rip), %rax
	movq	%rax, %rdi
	movl	$0, %eax
	call	printf@PLT
	.loc 1 310 34
	movb	$3, -8380(%rbp)
	movl	-8412(%rbp), %eax
	movb	%al, -8379(%rbp)
	.loc 1 313 40
	leaq	-4128(%rbp), %rax
	movq	%rax, %rdi
	call	strlen@PLT
	.loc 1 310 34
	movl	%eax, -8376(%rbp)
	movl	$0, -8372(%rbp)
	.loc 1 317 17
	movq	-8424(%rbp), %rax
	movl	4(%rax), %eax
	leaq	-8380(%rbp), %rsi
	movl	$0, %ecx
	movl	$12, %edx
	movl	%eax, %edi
	call	send@PLT
	.loc 1 318 72
	movl	-8376(%rbp), %eax
	.loc 1 318 17
	movl	%eax, %edx
	movq	-8424(%rbp), %rax
	movl	4(%rax), %eax
	leaq	-4128(%rbp), %rsi
	movl	$0, %ecx
	movl	%eax, %edi
	call	send@PLT
	jmp	.L44
.L53:
.LBE14:
.LBE13:
	.loc 1 277 13
	nop
.L44:
.LBE12:
	.loc 1 272 21
	movq	-8408(%rbp), %rax
	movq	%rax, %rdi
	call	readdir@PLT
	movq	%rax, -8400(%rbp)
	.loc 1 272 34 discriminator 1
	cmpq	$0, -8400(%rbp)
	jne	.L51
	.loc 1 323 5
	movq	-8408(%rbp), %rax
	movq	%rax, %rdi
	call	closedir@PLT
.L41:
	.loc 1 324 1
	movq	-24(%rbp), %rax
	subq	%fs:40, %rax
	je	.L52
	call	__stack_chk_fail@PLT
.L52:
	movq	-8(%rbp), %rbx
	leave
	.cfi_def_cfa 7, 8
	ret
	.cfi_endproc
.LFE324:
	.size	list_directory, .-list_directory
	.section	.rodata
	.align 8
.LC40:
	.string	"\033[32m    DELETE FILE SUCCESSFUL\n\033[0m"
	.align 8
.LC41:
	.string	"\033[32m    CHUNK: %d deleted !\n\033[0m"
.LC42:
	.string	"\033[31m    DELETE FAILED\n\033[0m"
	.align 8
.LC43:
	.string	"\033[31m    CHUNK: %d deleted !\n\033[0m"
	.text
	.globl	delete_command
	.type	delete_command, @function
delete_command:
.LFB325:
	.loc 1 327 1
	.cfi_startproc
	endbr64
	pushq	%rbp
	.cfi_def_cfa_offset 16
	.cfi_offset 6, -16
	movq	%rsp, %rbp
	.cfi_def_cfa_register 6
	leaq	-28672(%rsp), %r11
.LPSRL3:
	subq	$4096, %rsp
	orq	$0, (%rsp)
	cmpq	%r11, %rsp
	jne	.LPSRL3
	subq	$2112, %rsp
	movq	%rdi, -30776(%rbp)
	movq	%rsi, -30784(%rbp)
	.loc 1 327 1
	movq	%fs:40, %rax
	movq	%rax, -8(%rbp)
	xorl	%eax, %eax
	.loc 1 328 9
	movl	$0, -30760(%rbp)
	.loc 1 331 5
	leaq	-30736(%rbp), %rax
	movl	$30720, %edx
	movl	$0, %esi
	movq	%rax, %rdi
	call	memset@PLT
.LBB15:
	.loc 1 332 16
	movq	-30784(%rbp), %rax
	movl	4(%rax), %eax
	movl	%eax, %edx
	movq	-30776(%rbp), %rax
	movl	4(%rax), %eax
	leaq	-30736(%rbp), %rsi
	movl	$0, %ecx
	movl	%eax, %edi
	call	recv@PLT
	.loc 1 332 16 is_stmt 0 discriminator 1
	movl	%eax, -30756(%rbp)
	cmpl	$0, -30756(%rbp)
	jns	.L55
	call	__errno_location@PLT
	movl	(%rax), %eax
	movl	%eax, %esi
	leaq	.LC0(%rip), %rax
	movq	%rax, %rdi
	movl	$0, %eax
	call	printf@PLT
	.loc 1 332 16 discriminator 2
	movq	-30776(%rbp), %rax
	movl	4(%rax), %eax
	movl	%eax, %edi
	call	close@PLT
	.loc 1 332 16
	jmp	.L56
.L55:
	.loc 1 332 16 discriminator 2
	cmpl	$0, -30756(%rbp)
	jne	.L57
	.loc 1 332 16 discriminator 3
	movq	-30776(%rbp), %rax
	movl	4(%rax), %eax
	movl	%eax, %edi
	call	close@PLT
	.loc 1 332 16 discriminator 1
	call	__errno_location@PLT
	.loc 1 332 16 discriminator 2
	movl	(%rax), %eax
	movl	%eax, %esi
	leaq	.LC1(%rip), %rax
	movq	%rax, %rdi
	movl	$0, %eax
	call	printf@PLT
	.loc 1 332 16
	jmp	.L56
.L57:
	.loc 1 332 16 discriminator 4
	movl	-30756(%rbp), %eax
.LBE15:
	.loc 1 332 14 is_stmt 1 discriminator 4
	movl	%eax, -30760(%rbp)
	.loc 1 335 78
	movq	-30784(%rbp), %rax
	movzbl	1(%rax), %eax
	.loc 1 335 5
	movzbl	%al, %esi
	movq	-30776(%rbp), %rax
	movq	8(%rax), %rdx
	leaq	-30736(%rbp), %rcx
	leaq	-30752(%rbp), %rax
	movl	%esi, %r8d
	leaq	.LC2(%rip), %rsi
	movq	%rax, %rdi
	movl	$0, %eax
	call	asprintf@PLT
	.loc 1 337 16
	movq	-30752(%rbp), %rax
	leaq	.LC3(%rip), %rdx
	movq	%rdx, %rsi
	movq	%rax, %rdi
	call	fopen@PLT
	movq	%rax, -30744(%rbp)
	.loc 1 338 8
	cmpq	$0, -30744(%rbp)
	jne	.L58
	.loc 1 340 9
	movq	-30776(%rbp), %rax
	movl	4(%rax), %eax
	movl	$0, %ecx
	movl	$8, %edx
	leaq	.LC14(%rip), %rsi
	movl	%eax, %edi
	call	send@PLT
.L58:
	.loc 1 343 9
	movq	-30752(%rbp), %rax
	movq	%rax, %rdi
	call	remove@PLT
	.loc 1 343 8 discriminator 1
	testl	%eax, %eax
	js	.L59
	.loc 1 345 9
	leaq	.LC9(%rip), %rax
	movq	%rax, %rdi
	movl	$0, %eax
	call	printf@PLT
	.loc 1 346 9
	leaq	.LC40(%rip), %rax
	movq	%rax, %rdi
	movl	$0, %eax
	call	printf@PLT
	.loc 1 347 9
	movq	-30752(%rbp), %rax
	movq	%rax, %rsi
	leaq	.LC11(%rip), %rax
	movq	%rax, %rdi
	movl	$0, %eax
	call	printf@PLT
	.loc 1 348 69
	movq	-30784(%rbp), %rax
	movzbl	1(%rax), %eax
	.loc 1 348 9
	movzbl	%al, %eax
	movl	%eax, %esi
	leaq	.LC41(%rip), %rax
	movq	%rax, %rdi
	movl	$0, %eax
	call	printf@PLT
	.loc 1 349 9
	leaq	.LC13(%rip), %rax
	movq	%rax, %rdi
	movl	$0, %eax
	call	printf@PLT
	.loc 1 350 9
	movq	-30776(%rbp), %rax
	movl	4(%rax), %eax
	movl	$0, %ecx
	movl	$7, %edx
	leaq	.LC7(%rip), %rsi
	movl	%eax, %edi
	call	send@PLT
	jmp	.L60
.L59:
	.loc 1 354 9
	leaq	.LC15(%rip), %rax
	movq	%rax, %rdi
	movl	$0, %eax
	call	printf@PLT
	.loc 1 355 9
	leaq	.LC42(%rip), %rax
	movq	%rax, %rdi
	movl	$0, %eax
	call	printf@PLT
	.loc 1 356 9
	movq	-30752(%rbp), %rax
	movq	%rax, %rsi
	leaq	.LC17(%rip), %rax
	movq	%rax, %rdi
	movl	$0, %eax
	call	printf@PLT
	.loc 1 357 69
	movq	-30784(%rbp), %rax
	movzbl	1(%rax), %eax
	.loc 1 357 9
	movzbl	%al, %eax
	movl	%eax, %esi
	leaq	.LC43(%rip), %rax
	movq	%rax, %rdi
	movl	$0, %eax
	call	printf@PLT
	.loc 1 358 9
	leaq	.LC19(%rip), %rax
	movq	%rax, %rdi
	movl	$0, %eax
	call	printf@PLT
	.loc 1 359 9
	movq	-30776(%rbp), %rax
	movl	4(%rax), %eax
	movl	$0, %ecx
	movl	$8, %edx
	leaq	.LC14(%rip), %rsi
	movl	%eax, %edi
	call	send@PLT
.L60:
	.loc 1 362 5
	movq	-30752(%rbp), %rax
	movq	%rax, %rdi
	call	free@PLT
.L56:
	.loc 1 365 5
	nop
	.loc 1 366 1
	movq	-8(%rbp), %rax
	subq	%fs:40, %rax
	je	.L62
	call	__stack_chk_fail@PLT
.L62:
	leave
	.cfi_def_cfa 7, 8
	ret
	.cfi_endproc
.LFE325:
	.size	delete_command, .-delete_command
	.section	.rodata
	.align 8
.LC44:
	.string	"\033[31m[-] (%d) Select syscall failed with error: %d (%s)\n\033[0m"
	.align 8
.LC45:
	.string	"\033[33m\n[!] (%d) CONNECTION TIMEOUT:\n[-] Client connection idle for %d seconds\n------------------------------------------------------------\n\033[0m"
	.align 8
.LC46:
	.string	"\033[35m\n=========================================\n\033[0m"
.LC47:
	.string	"SERVER INFO"
.LC48:
	.string	"UNKNOWN"
.LC49:
	.string	"DELETE"
.LC50:
	.string	"LIST"
.LC51:
	.string	"GET"
.LC52:
	.string	"PUT"
.LC53:
	.string	"\033[35m    OPERATION: %s\n\033[0m"
	.align 8
.LC54:
	.string	"\033[35m    CHUNK NUMBER: %d \n\033[0m"
	.align 8
.LC55:
	.string	"\033[35m    FILENAME LENGTH: %d \n\033[0m"
	.align 8
.LC56:
	.string	"\033[35m    DATA LENGTH: %d \n\033[0m"
	.align 8
.LC57:
	.string	"\033[35m=========================================\n\033[0m"
	.text
	.globl	handle_req
	.type	handle_req, @function
handle_req:
.LFB326:
	.loc 1 386 1
	.cfi_startproc
	endbr64
	pushq	%rbp
	.cfi_def_cfa_offset 16
	.cfi_offset 6, -16
	movq	%rsp, %rbp
	.cfi_def_cfa_register 6
	pushq	%r12
	pushq	%rbx
	leaq	-28672(%rsp), %r11
.LPSRL4:
	subq	$4096, %rsp
	orq	$0, (%rsp)
	cmpq	%r11, %rsp
	jne	.LPSRL4
	subq	$2272, %rsp
	.cfi_offset 12, -24
	.cfi_offset 3, -32
	movq	%rdi, -30952(%rbp)
	.loc 1 386 1
	movq	%fs:40, %rax
	movq	%rax, -24(%rbp)
	xorl	%eax, %eax
.L89:
.LBB16:
.LBB17:
	.loc 1 394 9
	leaq	-30880(%rbp), %rax
	movq	%rax, -30920(%rbp)
	movl	$0, -30936(%rbp)
	jmp	.L64
.L65:
	.loc 1 394 9 is_stmt 0 discriminator 3
	movq	-30920(%rbp), %rax
	movl	-30936(%rbp), %edx
	movq	$0, (%rax,%rdx,8)
	addl	$1, -30936(%rbp)
.L64:
	.loc 1 394 9 discriminator 1
	cmpl	$15, -30936(%rbp)
	jbe	.L65
.LBE17:
	.loc 1 395 9 is_stmt 1
	movq	-30952(%rbp), %rax
	movl	4(%rax), %eax
	leal	63(%rax), %edx
	testl	%eax, %eax
	cmovs	%edx, %eax
	sarl	$6, %eax
	movl	%eax, %esi
	movslq	%esi, %rax
	movq	-30880(%rbp,%rax,8), %rdx
	movq	-30952(%rbp), %rax
	movl	4(%rax), %eax
	andl	$63, %eax
	movl	$1, %edi
	movl	%eax, %ecx
	salq	%cl, %rdi
	movq	%rdi, %rax
	orq	%rax, %rdx
	movslq	%esi, %rax
	movq	%rdx, -30880(%rbp,%rax,8)
	.loc 1 398 24
	movq	$2, -30896(%rbp)
	movq	$0, -30888(%rbp)
	.loc 1 401 38
	movq	-30952(%rbp), %rax
	movl	4(%rax), %eax
	.loc 1 401 29
	leal	1(%rax), %edi
	leaq	-30896(%rbp), %rdx
	leaq	-30880(%rbp), %rax
	movq	%rdx, %r8
	movl	$0, %ecx
	movl	$0, %edx
	movq	%rax, %rsi
	call	select@PLT
	movl	%eax, -30932(%rbp)
	.loc 1 403 12
	cmpl	$0, -30932(%rbp)
	jns	.L66
	.loc 1 406 47
	call	__errno_location@PLT
	.loc 1 405 13
	movl	(%rax), %eax
	movl	%eax, %edi
	call	strerror@PLT
	movq	%rax, %r12
	.loc 1 406 31
	call	__errno_location@PLT
	.loc 1 405 13
	movl	(%rax), %ebx
	call	gettid@PLT
	movl	%eax, %edx
	.loc 1 405 13 is_stmt 0 discriminator 2
	movq	stderr(%rip), %rax
	movq	%r12, %r8
	movl	%ebx, %ecx
	leaq	.LC44(%rip), %rsi
	movq	%rax, %rdi
	movl	$0, %eax
	call	fprintf@PLT
	.loc 1 407 13 is_stmt 1
	jmp	.L88
.L66:
	.loc 1 411 17
	cmpl	$0, -30932(%rbp)
	jne	.L68
	.loc 1 413 13
	call	gettid@PLT
	.loc 1 413 13 is_stmt 0 discriminator 1
	movl	$2, %edx
	movl	%eax, %esi
	leaq	.LC45(%rip), %rax
	movq	%rax, %rdi
	movl	$0, %eax
	call	printf@PLT
	.loc 1 417 13 is_stmt 1
	jmp	.L88
.L68:
	.loc 1 421 18
	movq	-30952(%rbp), %rax
	movl	4(%rax), %eax
	leal	63(%rax), %edx
	testl	%eax, %eax
	cmovs	%edx, %eax
	sarl	$6, %eax
	cltq
	movq	-30880(%rbp,%rax,8), %rdx
	movq	-30952(%rbp), %rax
	movl	4(%rax), %eax
	andl	$63, %eax
	movl	$1, %esi
	movl	%eax, %ecx
	salq	%cl, %rsi
	movq	%rsi, %rax
	andq	%rdx, %rax
	.loc 1 421 17
	testq	%rax, %rax
	je	.L89
.LBB18:
	.loc 1 423 13
	leaq	-30752(%rbp), %rax
	movl	$30720, %edx
	movl	$0, %esi
	movq	%rax, %rdi
	call	memset@PLT
	.loc 1 425 17
	movl	$0, -30928(%rbp)
.LBB19:
	.loc 1 428 13
	movq	-30952(%rbp), %rax
	movl	4(%rax), %eax
	leaq	-30908(%rbp), %rsi
	movl	$0, %ecx
	movl	$12, %edx
	movl	%eax, %edi
	call	recv@PLT
	.loc 1 428 13 is_stmt 0 discriminator 1
	movl	%eax, -30924(%rbp)
	cmpl	$0, -30924(%rbp)
	jns	.L70
	call	__errno_location@PLT
	movl	(%rax), %eax
	movl	%eax, %esi
	leaq	.LC0(%rip), %rax
	movq	%rax, %rdi
	movl	$0, %eax
	call	printf@PLT
	.loc 1 428 13 discriminator 2
	movq	-30952(%rbp), %rax
	movl	4(%rax), %eax
	movl	%eax, %edi
	call	close@PLT
	.loc 1 428 13
	jmp	.L71
.L70:
	.loc 1 428 13 discriminator 2
	cmpl	$0, -30924(%rbp)
	jne	.L72
	.loc 1 428 13 discriminator 4
	movq	-30952(%rbp), %rax
	movl	4(%rax), %eax
	movl	%eax, %edi
	call	close@PLT
	.loc 1 428 13 discriminator 1
	call	__errno_location@PLT
	.loc 1 428 13 discriminator 2
	movl	(%rax), %eax
	movl	%eax, %esi
	leaq	.LC1(%rip), %rax
	movq	%rax, %rdi
	movl	$0, %eax
	call	printf@PLT
	.loc 1 428 13
	jmp	.L71
.L72:
.LBE19:
	.loc 1 430 13 is_stmt 1
	leaq	.LC46(%rip), %rax
	movq	%rax, %rdi
	movl	$0, %eax
	call	printf@PLT
	.loc 1 432 34
	movzbl	-30908(%rbp), %eax
	.loc 1 431 13
	cmpb	$1, %al
	je	.L73
	.loc 1 432 74
	movzbl	-30908(%rbp), %eax
	.loc 1 433 56
	testb	%al, %al
	je	.L74
	.loc 1 433 72 discriminator 1
	movzbl	-30908(%rbp), %eax
	.loc 1 434 56
	cmpb	$3, %al
	je	.L75
	.loc 1 434 72 discriminator 1
	movzbl	-30908(%rbp), %eax
	.loc 1 435 56
	cmpb	$2, %al
	je	.L76
	.loc 1 435 72 discriminator 1
	movzbl	-30908(%rbp), %eax
	.loc 1 436 96
	cmpb	$5, %al
	jne	.L77
	.loc 1 436 96 is_stmt 0 discriminator 1
	leaq	.LC47(%rip), %rax
	jmp	.L82
.L77:
	.loc 1 436 96 discriminator 2
	leaq	.LC48(%rip), %rax
	jmp	.L82
.L76:
	.loc 1 435 56 is_stmt 1 discriminator 2
	leaq	.LC49(%rip), %rax
	jmp	.L82
.L75:
	.loc 1 434 56 discriminator 2
	leaq	.LC50(%rip), %rax
	jmp	.L82
.L74:
	.loc 1 433 56 discriminator 2
	leaq	.LC51(%rip), %rax
	jmp	.L82
.L73:
	.loc 1 431 13 discriminator 1
	leaq	.LC52(%rip), %rax
.L82:
	.loc 1 431 13 is_stmt 0 discriminator 3
	movq	%rax, %rsi
	leaq	.LC53(%rip), %rax
	movq	%rax, %rdi
	movl	$0, %eax
	call	printf@PLT
	.loc 1 437 71 is_stmt 1
	movzbl	-30907(%rbp), %eax
	.loc 1 437 13
	movzbl	%al, %eax
	movl	%eax, %esi
	leaq	.LC54(%rip), %rax
	movq	%rax, %rdi
	movl	$0, %eax
	call	printf@PLT
	.loc 1 438 13
	movl	-30904(%rbp), %eax
	movl	%eax, %esi
	leaq	.LC55(%rip), %rax
	movq	%rax, %rdi
	movl	$0, %eax
	call	printf@PLT
	.loc 1 439 13
	movl	-30900(%rbp), %eax
	movl	%eax, %esi
	leaq	.LC56(%rip), %rax
	movq	%rax, %rdi
	movl	$0, %eax
	call	printf@PLT
	.loc 1 440 13
	leaq	.LC57(%rip), %rax
	movq	%rax, %rdi
	movl	$0, %eax
	call	printf@PLT
	.loc 1 442 35
	movzbl	-30908(%rbp), %eax
	movzbl	%al, %eax
	.loc 1 442 13
	cmpl	$3, %eax
	je	.L83
	cmpl	$3, %eax
	jg	.L89
	cmpl	$2, %eax
	je	.L85
	cmpl	$2, %eax
	jg	.L89
	testl	%eax, %eax
	je	.L86
	cmpl	$1, %eax
	jne	.L89
	.loc 1 445 17
	leaq	-30908(%rbp), %rdx
	movq	-30952(%rbp), %rax
	movq	%rdx, %rsi
	movq	%rax, %rdi
	call	put_command
	.loc 1 446 17
	jmp	.L87
.L86:
	.loc 1 448 17
	leaq	-30908(%rbp), %rdx
	movq	-30952(%rbp), %rax
	movq	%rdx, %rsi
	movq	%rax, %rdi
	call	get_command
	.loc 1 449 17
	jmp	.L87
.L85:
	.loc 1 451 17
	leaq	-30908(%rbp), %rdx
	movq	-30952(%rbp), %rax
	movq	%rdx, %rsi
	movq	%rax, %rdi
	call	delete_command
	.loc 1 452 17
	jmp	.L87
.L83:
	.loc 1 454 17
	leaq	-30908(%rbp), %rdx
	movq	-30952(%rbp), %rax
	movq	%rdx, %rsi
	movq	%rax, %rdi
	call	ls_command
	.loc 1 455 17
	jmp	.L87
.L71:
.LBE18:
	.loc 1 407 13 discriminator 1
	jmp	.L88
.L87:
.LBE16:
	.loc 1 393 5
	jmp	.L89
.L88:
	.loc 1 464 5
	movq	-30952(%rbp), %rax
	movl	4(%rax), %eax
	movl	%eax, %edi
	call	close@PLT
	.loc 1 466 12
	movl	$0, %eax
	.loc 1 467 1
	movq	-24(%rbp), %rdx
	subq	%fs:40, %rdx
	je	.L91
	call	__stack_chk_fail@PLT
.L91:
	addq	$30944, %rsp
	popq	%rbx
	popq	%r12
	popq	%rbp
	.cfi_def_cfa 7, 8
	ret
	.cfi_endproc
.LFE326:
	.size	handle_req, .-handle_req
.Letext0:
	.file 2 "/usr/lib/gcc/x86_64-linux-gnu/14/include/stddef.h"
	.file 3 "/usr/include/x86_64-linux-gnu/bits/types.h"
	.file 4 "/usr/include/x86_64-linux-gnu/bits/types/struct_FILE.h"
	.file 5 "/usr/include/x86_64-linux-gnu/bits/types/FILE.h"
	.file 6 "/usr/include/stdio.h"
	.file 7 "/usr/include/x86_64-linux-gnu/bits/types/struct_timeval.h"
	.file 8 "/usr/include/x86_64-linux-gnu/bits/types/struct_timespec.h"
	.file 9 "/usr/include/x86_64-linux-gnu/sys/select.h"
	.file 10 "/usr/include/x86_64-linux-gnu/bits/thread-shared-types.h"
	.file 11 "/usr/include/x86_64-linux-gnu/bits/struct_mutex.h"
	.file 12 "/usr/include/x86_64-linux-gnu/bits/pthreadtypes.h"
	.file 13 "/usr/include/x86_64-linux-gnu/bits/stdint-uintn.h"
	.file 14 "/usr/include/unistd.h"
	.file 15 "/usr/include/x86_64-linux-gnu/bits/dirent.h"
	.file 16 "/usr/include/x86_64-linux-gnu/bits/sockaddr.h"
	.file 17 "/usr/include/x86_64-linux-gnu/bits/socket.h"
	.file 18 "/usr/include/netinet/in.h"
	.file 19 "/usr/include/netdb.h"
	.file 20 "/usr/include/x86_64-linux-gnu/bits/struct_stat.h"
	.file 21 "./common.h"
	.file 22 "/usr/include/ctype.h"
	.file 23 "/usr/include/dirent.h"
	.file 24 "/usr/include/stdlib.h"
	.file 25 "/usr/include/x86_64-linux-gnu/bits/unistd_ext.h"
	.file 26 "/usr/include/x86_64-linux-gnu/sys/stat.h"
	.file 27 "/usr/include/string.h"
	.file 28 "/usr/include/x86_64-linux-gnu/sys/socket.h"
	.file 29 "/usr/include/errno.h"
	.section	.note.GNU-stack,"",@progbits
	.section	.note.gnu.property,"a"
	.align 8
	.long	1f - 0f
	.long	4f - 1f
	.long	5
0:
	.string	"GNU"
1:
	.align 8
	.long	0xc0000002
	.long	3f - 2f
2:
	.long	0x3
3:
	.align 8
4:
