	.file	"server_method.c"
	.text
.Ltext0:
	.file 0 "/home/parth/Work/All_data/university/Network System/Assignments/PA4/server" "src/server_method.c"
	.section	.rodata
.LC0:
	.string	"ls\n"
.LC1:
	.string	"get "
.LC2:
	.string	"put "
.LC3:
	.string	"exit\n"
.LC4:
	.string	"exit"
.LC5:
	.string	"delete "
	.align 8
.LC6:
	.string	"\033[31m[-] Wrong command try again \n\r\033[0m"
	.text
	.globl	whichcmd
	.type	whichcmd, @function
whichcmd:
.LFB320:
	.file 1 "src/server_method.c"
	.loc 1 26 1
	.cfi_startproc
	endbr64
	pushq	%rbp
	.cfi_def_cfa_offset 16
	.cfi_offset 6, -16
	movq	%rsp, %rbp
	.cfi_def_cfa_register 6
	subq	$16, %rsp
	movq	%rdi, -8(%rbp)
	.loc 1 27 9
	movq	-8(%rbp), %rax
	movq	%rax, %rdi
	call	strlen@PLT
	movq	%rax, %rdx
	.loc 1 27 9 is_stmt 0 discriminator 1
	movq	-8(%rbp), %rax
	leaq	.LC0(%rip), %rcx
	movq	%rcx, %rsi
	movq	%rax, %rdi
	call	strncmp@PLT
	.loc 1 27 8 is_stmt 1 discriminator 2
	testl	%eax, %eax
	jne	.L2
	.loc 1 29 16
	movl	$3, %eax
	jmp	.L3
.L2:
	.loc 1 31 14
	movq	-8(%rbp), %rax
	movl	$4, %edx
	leaq	.LC1(%rip), %rcx
	movq	%rcx, %rsi
	movq	%rax, %rdi
	call	strncmp@PLT
	.loc 1 31 13 discriminator 1
	testl	%eax, %eax
	jne	.L4
	.loc 1 33 16
	movl	$0, %eax
	jmp	.L3
.L4:
	.loc 1 35 14
	movq	-8(%rbp), %rax
	movl	$4, %edx
	leaq	.LC2(%rip), %rcx
	movq	%rcx, %rsi
	movq	%rax, %rdi
	call	strncmp@PLT
	.loc 1 35 13 discriminator 1
	testl	%eax, %eax
	jne	.L5
	.loc 1 37 16
	movl	$1, %eax
	jmp	.L3
.L5:
	.loc 1 39 14
	movq	-8(%rbp), %rax
	movq	%rax, %rdi
	call	strlen@PLT
	movq	%rax, %rdx
	.loc 1 39 14 is_stmt 0 discriminator 1
	movq	-8(%rbp), %rax
	leaq	.LC3(%rip), %rcx
	movq	%rcx, %rsi
	movq	%rax, %rdi
	call	strncmp@PLT
	.loc 1 39 13 is_stmt 1 discriminator 2
	testl	%eax, %eax
	jne	.L6
	.loc 1 41 9
	leaq	.LC4(%rip), %rax
	movq	%rax, %rdi
	movl	$0, %eax
	call	printf@PLT
	.loc 1 42 16
	movl	$4, %eax
	jmp	.L3
.L6:
	.loc 1 44 14
	movq	-8(%rbp), %rax
	movl	$7, %edx
	leaq	.LC5(%rip), %rcx
	movq	%rcx, %rsi
	movq	%rax, %rdi
	call	strncmp@PLT
	.loc 1 44 13 discriminator 1
	testl	%eax, %eax
	jne	.L7
	.loc 1 46 16
	movl	$2, %eax
	jmp	.L3
.L7:
	.loc 1 50 9
	leaq	.LC6(%rip), %rax
	movq	%rax, %rdi
	movl	$0, %eax
	call	printf@PLT
	.loc 1 51 16
	movl	$-1, %eax
.L3:
	.loc 1 53 1
	leave
	.cfi_def_cfa 7, 8
	ret
	.cfi_endproc
.LFE320:
	.size	whichcmd, .-whichcmd
	.section	.rodata
.LC7:
	.string	"\n\nLS\n"
	.text
	.globl	list_files
	.type	list_files, @function
list_files:
.LFB321:
	.loc 1 72 1
	.cfi_startproc
	endbr64
	pushq	%rbp
	.cfi_def_cfa_offset 16
	.cfi_offset 6, -16
	movq	%rsp, %rbp
	.cfi_def_cfa_register 6
	subq	$16, %rsp
	movq	%rdi, -8(%rbp)
	.loc 1 74 5
	leaq	.LC7(%rip), %rax
	movq	%rax, %rdi
	call	puts@PLT
	.loc 1 141 1
	nop
	leave
	.cfi_def_cfa 7, 8
	ret
	.cfi_endproc
.LFE321:
	.size	list_files, .-list_files
	.section	.rodata
.LC8:
	.string	"\n\nGET\n"
	.text
	.globl	get_file
	.type	get_file, @function
get_file:
.LFB322:
	.loc 1 159 1
	.cfi_startproc
	endbr64
	pushq	%rbp
	.cfi_def_cfa_offset 16
	.cfi_offset 6, -16
	movq	%rsp, %rbp
	.cfi_def_cfa_register 6
	subq	$16, %rsp
	movq	%rdi, -8(%rbp)
	movq	%rsi, -16(%rbp)
	.loc 1 161 5
	leaq	.LC8(%rip), %rax
	movq	%rax, %rdi
	call	puts@PLT
	.loc 1 253 1
	nop
	leave
	.cfi_def_cfa 7, 8
	ret
	.cfi_endproc
.LFE322:
	.size	get_file, .-get_file
	.section	.rodata
.LC9:
	.string	"\n\nDELETE\n"
	.text
	.globl	delete_file
	.type	delete_file, @function
delete_file:
.LFB323:
	.loc 1 265 1
	.cfi_startproc
	endbr64
	pushq	%rbp
	.cfi_def_cfa_offset 16
	.cfi_offset 6, -16
	movq	%rsp, %rbp
	.cfi_def_cfa_register 6
	subq	$16, %rsp
	movq	%rdi, -8(%rbp)
	movq	%rsi, -16(%rbp)
	.loc 1 268 5
	leaq	.LC9(%rip), %rax
	movq	%rax, %rdi
	call	puts@PLT
	.loc 1 318 1
	nop
	leave
	.cfi_def_cfa 7, 8
	ret
	.cfi_endproc
.LFE323:
	.size	delete_file, .-delete_file
.Letext0:
	.file 2 "/usr/lib/gcc/x86_64-linux-gnu/14/include/stddef.h"
	.file 3 "/usr/include/x86_64-linux-gnu/bits/types.h"
	.file 4 "/usr/include/x86_64-linux-gnu/bits/thread-shared-types.h"
	.file 5 "/usr/include/x86_64-linux-gnu/bits/struct_mutex.h"
	.file 6 "/usr/include/x86_64-linux-gnu/bits/pthreadtypes.h"
	.file 7 "/usr/include/unistd.h"
	.file 8 "/usr/include/x86_64-linux-gnu/bits/sockaddr.h"
	.file 9 "/usr/include/x86_64-linux-gnu/bits/socket.h"
	.file 10 "/usr/include/netdb.h"
	.file 11 "./common.h"
	.file 12 "/usr/include/stdio.h"
	.file 13 "/usr/include/string.h"
	.section	.note.GNU-stack,"",@progbits
	.section	.note.gnu.property,"a"
	.align 8
	.long	1f - 0f
	.long	4f - 1f
	.long	5
0:
	.string	"GNU"
1:
	.align 8
	.long	0xc0000002
	.long	3f - 2f
2:
	.long	0x3
3:
	.align 8
4:
