	.file	"setup.c"
	.text
.Ltext0:
	.file 0 "/home/parth/Work/All_data/university/Network System/Assignments/PA4/server" "src/setup.c"
	.section	.rodata
	.align 8
.LC0:
	.string	"\033[31m[-] Error somewhere ! Check below message to see details "
.LC1:
	.string	"\033[31m[-] Timeout\n\033[0m"
	.align 8
.LC2:
	.string	"UNABLE_TO_COMPLETE_THE_OPERATION\t\n0\t\n"
	.string	""
	.text
	.globl	error
	.type	error, @function
error:
.LFB320:
	.file 1 "src/setup.c"
	.loc 1 29 1
	.cfi_startproc
	endbr64
	pushq	%rbp
	.cfi_def_cfa_offset 16
	.cfi_offset 6, -16
	movq	%rsp, %rbp
	.cfi_def_cfa_register 6
	subq	$16, %rsp
	movq	%rdi, -8(%rbp)
	movq	%rsi, -16(%rbp)
	.loc 1 30 5
	leaq	.LC0(%rip), %rax
	movq	%rax, %rdi
	call	puts@PLT
	.loc 1 32 5
	movq	-16(%rbp), %rax
	movq	%rax, %rdi
	call	perror@PLT
	.loc 1 34 9
	call	__errno_location@PLT
	.loc 1 34 9 is_stmt 0 discriminator 1
	movl	(%rax), %eax
	.loc 1 34 8 is_stmt 1 discriminator 1
	cmpl	$11, %eax
	je	.L2
	.loc 1 34 28 discriminator 1
	call	__errno_location@PLT
	movl	(%rax), %eax
	.loc 1 34 25 discriminator 1
	cmpl	$11, %eax
	jne	.L3
.L2:
	.loc 1 37 9
	leaq	.LC1(%rip), %rax
	movq	%rax, %rdi
	movl	$0, %eax
	call	printf@PLT
	jmp	.L4
.L3:
	.loc 1 42 9
	movq	-8(%rbp), %rax
	movl	4(%rax), %eax
	movl	$0, %ecx
	movl	$37, %edx
	leaq	.LC2(%rip), %rsi
	movl	%eax, %edi
	call	send@PLT
	.loc 1 46 1
	nop
.L4:
	nop
	leave
	.cfi_def_cfa 7, 8
	ret
	.cfi_endproc
.LFE320:
	.size	error, .-error
	.section	.rodata
.LC3:
	.string	"[-] send"
	.text
	.globl	_send
	.type	_send, @function
_send:
.LFB321:
	.loc 1 65 1
	.cfi_startproc
	endbr64
	pushq	%rbp
	.cfi_def_cfa_offset 16
	.cfi_offset 6, -16
	movq	%rsp, %rbp
	.cfi_def_cfa_register 6
	subq	$32, %rsp
	movq	%rdi, -8(%rbp)
	movl	%esi, -12(%rbp)
	movq	%rdx, -24(%rbp)
	.loc 1 66 26
	movl	-12(%rbp), %eax
	movslq	%eax, %rdx
	movq	-8(%rbp), %rax
	movl	4(%rax), %eax
	movq	-24(%rbp), %rsi
	movl	$0, %ecx
	movl	%eax, %edi
	call	send@PLT
	.loc 1 66 24 discriminator 1
	movl	%eax, %edx
	movq	-8(%rbp), %rax
	movl	%edx, 152(%rax)
	.loc 1 66 12 discriminator 1
	movq	-8(%rbp), %rax
	movl	152(%rax), %eax
	.loc 1 66 8 discriminator 1
	testl	%eax, %eax
	jns	.L7
	.loc 1 68 9
	movq	-8(%rbp), %rax
	leaq	.LC3(%rip), %rdx
	movq	%rdx, %rsi
	movq	%rax, %rdi
	call	error
.L7:
	.loc 1 70 1
	nop
	leave
	.cfi_def_cfa 7, 8
	ret
	.cfi_endproc
.LFE321:
	.size	_send, .-_send
	.section	.rodata
.LC4:
	.string	"[-] recv"
	.text
	.globl	_recv
	.type	_recv, @function
_recv:
.LFB322:
	.loc 1 88 1
	.cfi_startproc
	endbr64
	pushq	%rbp
	.cfi_def_cfa_offset 16
	.cfi_offset 6, -16
	movq	%rsp, %rbp
	.cfi_def_cfa_register 6
	subq	$32, %rsp
	movq	%rdi, -8(%rbp)
	movl	%esi, -12(%rbp)
	movq	%rdx, -24(%rbp)
	.loc 1 89 26
	movl	-12(%rbp), %eax
	movslq	%eax, %rdx
	movq	-8(%rbp), %rax
	movl	4(%rax), %eax
	movq	-24(%rbp), %rsi
	movl	$0, %ecx
	movl	%eax, %edi
	call	recv@PLT
	.loc 1 89 24 discriminator 1
	movl	%eax, %edx
	movq	-8(%rbp), %rax
	movl	%edx, 148(%rax)
	.loc 1 89 12 discriminator 1
	movq	-8(%rbp), %rax
	movl	148(%rax), %eax
	.loc 1 89 8 discriminator 1
	testl	%eax, %eax
	jns	.L10
	.loc 1 91 9
	movq	-8(%rbp), %rax
	leaq	.LC4(%rip), %rdx
	movq	%rdx, %rsi
	movq	%rax, %rdi
	call	error
.L10:
	.loc 1 93 1
	nop
	leave
	.cfi_def_cfa 7, 8
	ret
	.cfi_endproc
.LFE322:
	.size	_recv, .-_recv
	.section	.rodata
.LC5:
	.string	"setsockopt"
	.text
	.globl	set_timeout
	.type	set_timeout, @function
set_timeout:
.LFB323:
	.loc 1 113 1
	.cfi_startproc
	endbr64
	pushq	%rbp
	.cfi_def_cfa_offset 16
	.cfi_offset 6, -16
	movq	%rsp, %rbp
	.cfi_def_cfa_register 6
	subq	$48, %rsp
	movq	%rdi, -40(%rbp)
	movl	%esi, -44(%rbp)
	.loc 1 113 1
	movq	%fs:40, %rax
	movq	%rax, -8(%rbp)
	xorl	%eax, %eax
	.loc 1 116 20
	movl	-44(%rbp), %eax
	cltq
	movq	%rax, -32(%rbp)
	.loc 1 117 21
	movq	$0, -24(%rbp)
	.loc 1 120 9
	movq	-40(%rbp), %rax
	movl	(%rax), %eax
	leaq	-32(%rbp), %rdx
	movl	$16, %r8d
	movq	%rdx, %rcx
	movl	$20, %edx
	movl	$1, %esi
	movl	%eax, %edi
	call	setsockopt@PLT
	.loc 1 120 8 discriminator 1
	cmpl	$-1, %eax
	jne	.L14
	.loc 1 122 9
	leaq	.LC5(%rip), %rax
	movq	%rax, %rdi
	call	perror@PLT
	.loc 1 123 9
	movl	$1, %edi
	call	exit@PLT
.L14:
	.loc 1 125 1
	nop
	movq	-8(%rbp), %rax
	subq	%fs:40, %rax
	je	.L13
	call	__stack_chk_fail@PLT
.L13:
	leave
	.cfi_def_cfa 7, 8
	ret
	.cfi_endproc
.LFE323:
	.size	set_timeout, .-set_timeout
	.globl	remove_timeout
	.type	remove_timeout, @function
remove_timeout:
.LFB324:
	.loc 1 143 1
	.cfi_startproc
	endbr64
	pushq	%rbp
	.cfi_def_cfa_offset 16
	.cfi_offset 6, -16
	movq	%rsp, %rbp
	.cfi_def_cfa_register 6
	subq	$48, %rsp
	movq	%rdi, -40(%rbp)
	.loc 1 143 1
	movq	%fs:40, %rax
	movq	%rax, -8(%rbp)
	xorl	%eax, %eax
	.loc 1 146 20
	movq	$0, -32(%rbp)
	.loc 1 147 21
	movq	$0, -24(%rbp)
	.loc 1 150 9
	movq	-40(%rbp), %rax
	movl	(%rax), %eax
	leaq	-32(%rbp), %rdx
	movl	$16, %r8d
	movq	%rdx, %rcx
	movl	$20, %edx
	movl	$1, %esi
	movl	%eax, %edi
	call	setsockopt@PLT
	.loc 1 150 8 discriminator 1
	cmpl	$-1, %eax
	jne	.L18
	.loc 1 153 9
	leaq	.LC5(%rip), %rax
	movq	%rax, %rdi
	call	perror@PLT
	.loc 1 154 9
	movl	$1, %edi
	call	exit@PLT
.L18:
	.loc 1 156 1
	nop
	movq	-8(%rbp), %rax
	subq	%fs:40, %rax
	je	.L17
	call	__stack_chk_fail@PLT
.L17:
	leave
	.cfi_def_cfa 7, 8
	ret
	.cfi_endproc
.LFE324:
	.size	remove_timeout, .-remove_timeout
	.globl	getin_addr
	.type	getin_addr, @function
getin_addr:
.LFB325:
	.loc 1 176 1
	.cfi_startproc
	endbr64
	pushq	%rbp
	.cfi_def_cfa_offset 16
	.cfi_offset 6, -16
	movq	%rsp, %rbp
	.cfi_def_cfa_register 6
	movq	%rdi, -8(%rbp)
	.loc 1 177 11
	movq	-8(%rbp), %rax
	movzwl	(%rax), %eax
	.loc 1 177 8
	cmpw	$2, %ax
	jne	.L20
	.loc 1 179 17
	movq	-8(%rbp), %rax
	addq	$4, %rax
	jmp	.L21
.L20:
	.loc 1 181 16
	movq	-8(%rbp), %rax
	movzwl	(%rax), %eax
	.loc 1 181 13
	cmpw	$10, %ax
	jne	.L22
	.loc 1 183 17
	movq	-8(%rbp), %rax
	addq	$8, %rax
	jmp	.L21
.L22:
	.loc 1 185 12
	movl	$0, %eax
.L21:
	.loc 1 186 1
	popq	%rbp
	.cfi_def_cfa 7, 8
	ret
	.cfi_endproc
.LFE325:
	.size	getin_addr, .-getin_addr
	.section	.rodata
	.align 8
.LC6:
	.string	"\033[31m[-] Port Value < 1024 ! keep port value higher than 1024 \n\033[0m"
.LC7:
	.string	"\033[31mgetaddrinfo: %s\n\033[0m"
	.align 8
.LC8:
	.string	"\033[32m[+] getaddrinfo call successful\n\033[0m"
.LC9:
	.string	"\033[31mserver: socket"
	.align 8
.LC10:
	.string	"\033[32m[+] socket call successful\n\033[0m"
.LC11:
	.string	"\033[31msetsockopt"
.LC12:
	.string	"\033[31mserver: bind"
	.align 8
.LC13:
	.string	"\033[31m[-] socket connection failed for server \n\033[0m"
	.align 8
.LC14:
	.string	"\033[32m[+] Server recieving TCP/HTTP1.0 packet to : %s\n\033[0m"
.LC15:
	.string	"listen"
	.text
	.globl	init_socket
	.type	init_socket, @function
init_socket:
.LFB326:
	.loc 1 205 1
	.cfi_startproc
	endbr64
	pushq	%rbp
	.cfi_def_cfa_offset 16
	.cfi_offset 6, -16
	movq	%rsp, %rbp
	.cfi_def_cfa_register 6
	subq	$160, %rsp
	movq	%rdi, -152(%rbp)
	movq	%rsi, -160(%rbp)
	.loc 1 205 1
	movq	%fs:40, %rax
	movq	%rax, -8(%rbp)
	xorl	%eax, %eax
	.loc 1 213 5
	leaq	-112(%rbp), %rax
	movl	$48, %edx
	movl	$0, %esi
	movq	%rax, %rdi
	call	memset@PLT
	.loc 1 214 21
	movl	$0, -108(%rbp)
	.loc 1 215 23
	movl	$1, -104(%rbp)
	.loc 1 216 20
	movl	$1, -112(%rbp)
	.loc 1 218 11
	movq	-160(%rbp), %rax
	movq	%rax, -120(%rbp)
	.loc 1 220 9
	movq	-120(%rbp), %rax
	movq	%rax, %rdi
	call	atoi@PLT
	.loc 1 220 8 discriminator 1
	cmpl	$1024, %eax
	jg	.L24
	.loc 1 222 9
	movq	stderr(%rip), %rax
	movq	%rax, %rcx
	movl	$67, %edx
	movl	$1, %esi
	leaq	.LC6(%rip), %rax
	movq	%rax, %rdi
	call	fwrite@PLT
	.loc 1 223 9
	movl	$1, %edi
	call	exit@PLT
.L24:
	.loc 1 229 19
	movq	-152(%rbp), %rax
	leaq	136(%rax), %rcx
	leaq	-112(%rbp), %rdx
	movq	-120(%rbp), %rax
	movq	%rax, %rsi
	movl	$0, %edi
	call	getaddrinfo@PLT
	movl	%eax, -132(%rbp)
	.loc 1 229 8 discriminator 1
	cmpl	$0, -132(%rbp)
	jns	.L25
	.loc 1 231 9
	movl	-132(%rbp), %eax
	movl	%eax, %edi
	call	gai_strerror@PLT
	movq	%rax, %rdx
	.loc 1 231 9 is_stmt 0 discriminator 1
	movq	stderr(%rip), %rax
	leaq	.LC7(%rip), %rcx
	movq	%rcx, %rsi
	movq	%rax, %rdi
	movl	$0, %eax
	call	fprintf@PLT
	.loc 1 232 9 is_stmt 1
	movl	$1, %edi
	call	exit@PLT
.L25:
	.loc 1 234 5
	leaq	.LC8(%rip), %rax
	movq	%rax, %rdi
	movl	$0, %eax
	call	printf@PLT
	.loc 1 237 15
	movq	-152(%rbp), %rax
	movq	136(%rax), %rax
	movq	%rax, -128(%rbp)
	.loc 1 237 5
	jmp	.L26
.L32:
.LBB2:
	.loc 1 245 23
	movq	-128(%rbp), %rax
	movl	12(%rax), %edx
	movq	-128(%rbp), %rax
	movl	8(%rax), %ecx
	movq	-128(%rbp), %rax
	movl	4(%rax), %eax
	movl	%ecx, %esi
	movl	%eax, %edi
	call	socket@PLT
	movl	%eax, -136(%rbp)
	.loc 1 245 12 discriminator 1
	cmpl	$0, -136(%rbp)
	jns	.L27
	.loc 1 247 13
	leaq	.LC9(%rip), %rax
	movq	%rax, %rdi
	call	perror@PLT
	.loc 1 248 13
	jmp	.L28
.L27:
	.loc 1 250 9
	leaq	.LC10(%rip), %rax
	movq	%rax, %rdi
	movl	$0, %eax
	call	printf@PLT
	.loc 1 252 13
	movl	$1, -140(%rbp)
	.loc 1 254 13
	leaq	-140(%rbp), %rdx
	movl	-136(%rbp), %eax
	movl	$4, %r8d
	movq	%rdx, %rcx
	movl	$2, %edx
	movl	$1, %esi
	movl	%eax, %edi
	call	setsockopt@PLT
	.loc 1 254 12 discriminator 1
	cmpl	$-1, %eax
	jne	.L29
	.loc 1 256 13
	leaq	.LC11(%rip), %rax
	movq	%rax, %rdi
	call	perror@PLT
	.loc 1 257 13
	movl	$1, %edi
	call	exit@PLT
.L29:
	.loc 1 264 13
	movq	-128(%rbp), %rax
	movl	16(%rax), %edx
	.loc 1 264 30
	movq	-128(%rbp), %rax
	movq	24(%rax), %rax
	.loc 1 264 13
	movq	%rax, %rcx
	movl	-136(%rbp), %eax
	movq	%rcx, %rsi
	movl	%eax, %edi
	call	bind@PLT
	.loc 1 264 12 discriminator 1
	testl	%eax, %eax
	jns	.L36
	.loc 1 266 13
	movl	-136(%rbp), %eax
	movl	%eax, %edi
	call	close@PLT
	.loc 1 267 13
	leaq	.LC12(%rip), %rax
	movq	%rax, %rdi
	call	perror@PLT
	.loc 1 268 13
	nop
.L28:
.LBE2:
	.loc 1 237 53 discriminator 2
	movq	-128(%rbp), %rax
	movq	40(%rax), %rax
	movq	%rax, -128(%rbp)
.L26:
	.loc 1 237 39 discriminator 1
	cmpq	$0, -128(%rbp)
	jne	.L32
	jmp	.L31
.L36:
.LBB3:
	.loc 1 271 9
	nop
.L31:
.LBE3:
	.loc 1 275 8
	cmpq	$0, -128(%rbp)
	jne	.L33
	.loc 1 277 9
	movq	stderr(%rip), %rax
	movq	%rax, %rcx
	movl	$50, %edx
	movl	$1, %esi
	leaq	.LC13(%rip), %rax
	movq	%rax, %rdi
	call	fwrite@PLT
	.loc 1 278 9
	movl	-136(%rbp), %eax
	movl	%eax, %edi
	call	close@PLT
	.loc 1 279 9
	movl	$1, %edi
	call	exit@PLT
.L33:
	.loc 1 281 16
	movq	-152(%rbp), %rax
	movl	-136(%rbp), %edx
	movl	%edx, (%rax)
	.loc 1 284 32
	movq	-128(%rbp), %rax
	movq	24(%rax), %rax
	movq	%rax, %rdi
	call	getin_addr
	movq	%rax, %rsi
	.loc 1 284 5 discriminator 1
	movq	-128(%rbp), %rax
	movl	4(%rax), %eax
	leaq	-64(%rbp), %rdx
	movl	$46, %ecx
	movl	%eax, %edi
	call	inet_ntop@PLT
	.loc 1 285 5
	leaq	-64(%rbp), %rax
	movq	%rax, %rsi
	leaq	.LC14(%rip), %rax
	movq	%rax, %rdi
	movl	$0, %eax
	call	printf@PLT
	.loc 1 287 5
	movq	-128(%rbp), %rax
	movq	%rax, %rdi
	call	freeaddrinfo@PLT
	.loc 1 289 9
	movl	-136(%rbp), %eax
	movl	$20, %esi
	movl	%eax, %edi
	call	listen@PLT
	.loc 1 289 8 discriminator 1
	testl	%eax, %eax
	jns	.L37
	.loc 1 291 9
	leaq	.LC15(%rip), %rax
	movq	%rax, %rdi
	call	perror@PLT
	.loc 1 292 9
	movl	$1, %edi
	call	exit@PLT
.L37:
	.loc 1 294 1
	nop
	movq	-8(%rbp), %rax
	subq	%fs:40, %rax
	je	.L35
	call	__stack_chk_fail@PLT
.L35:
	leave
	.cfi_def_cfa 7, 8
	ret
	.cfi_endproc
.LFE326:
	.size	init_socket, .-init_socket
.Letext0:
	.file 2 "/usr/lib/gcc/x86_64-linux-gnu/14/include/stddef.h"
	.file 3 "/usr/include/x86_64-linux-gnu/bits/types.h"
	.file 4 "/usr/include/x86_64-linux-gnu/bits/types/struct_FILE.h"
	.file 5 "/usr/include/x86_64-linux-gnu/bits/types/FILE.h"
	.file 6 "/usr/include/stdio.h"
	.file 7 "/usr/include/x86_64-linux-gnu/bits/types/struct_timeval.h"
	.file 8 "/usr/include/x86_64-linux-gnu/bits/thread-shared-types.h"
	.file 9 "/usr/include/x86_64-linux-gnu/bits/struct_mutex.h"
	.file 10 "/usr/include/x86_64-linux-gnu/bits/pthreadtypes.h"
	.file 11 "/usr/include/x86_64-linux-gnu/bits/stdint-uintn.h"
	.file 12 "/usr/include/unistd.h"
	.file 13 "/usr/include/x86_64-linux-gnu/bits/sockaddr.h"
	.file 14 "/usr/include/x86_64-linux-gnu/bits/socket.h"
	.file 15 "/usr/include/netinet/in.h"
	.file 16 "/usr/include/x86_64-linux-gnu/sys/socket.h"
	.file 17 "/usr/include/netdb.h"
	.file 18 "./common.h"
	.file 19 "/usr/include/arpa/inet.h"
	.file 20 "/usr/include/stdlib.h"
	.file 21 "/usr/include/string.h"
	.file 22 "/usr/include/x86_64-linux-gnu/bits/socket_type.h"
	.file 23 "/usr/include/errno.h"
	.section	.note.GNU-stack,"",@progbits
	.section	.note.gnu.property,"a"
	.align 8
	.long	1f - 0f
	.long	4f - 1f
	.long	5
0:
	.string	"GNU"
1:
	.align 8
	.long	0xc0000002
	.long	3f - 2f
2:
	.long	0x3
3:
	.align 8
4:
