	.file	"dfs.c"
	.text
.Ltext0:
	.file 0 "/home/parth/Work/All_data/university/Network System/Assignments/PA4/server" "dfs.c"
	.section	.rodata
.LC0:
	.string	"%02x"
	.text
	.globl	str2md5
	.type	str2md5, @function
str2md5:
.LFB320:
	.file 1 "dfs.c"
	.loc 1 7 1
	.cfi_startproc
	endbr64
	pushq	%rbp
	.cfi_def_cfa_offset 16
	.cfi_offset 6, -16
	movq	%rsp, %rbp
	.cfi_def_cfa_register 6
	subq	$80, %rsp
	movq	%rdi, -72(%rbp)
	movl	%esi, -76(%rbp)
	.loc 1 7 1
	movq	%fs:40, %rax
	movq	%rax, -8(%rbp)
	xorl	%eax, %eax
	.loc 1 9 27
	call	EVP_MD_CTX_new@PLT
	movq	%rax, -56(%rbp)
	.loc 1 10 24
	call	EVP_md5@PLT
	movq	%rax, -48(%rbp)
	.loc 1 11 5
	movq	-48(%rbp), %rcx
	movq	-56(%rbp), %rax
	movl	$0, %edx
	movq	%rcx, %rsi
	movq	%rax, %rdi
	call	EVP_DigestInit_ex@PLT
	.loc 1 13 25
	movl	$33, %edi
	call	malloc@PLT
	movq	%rax, -40(%rbp)
	.loc 1 16 11
	jmp	.L2
.L5:
	.loc 1 18 12
	cmpl	$512, -76(%rbp)
	jle	.L3
	.loc 1 20 13
	movq	-72(%rbp), %rcx
	movq	-56(%rbp), %rax
	movl	$512, %edx
	movq	%rcx, %rsi
	movq	%rax, %rdi
	call	EVP_DigestUpdate@PLT
	jmp	.L4
.L3:
	.loc 1 24 13
	movl	-76(%rbp), %eax
	movslq	%eax, %rdx
	movq	-72(%rbp), %rcx
	movq	-56(%rbp), %rax
	movq	%rcx, %rsi
	movq	%rax, %rdi
	call	EVP_DigestUpdate@PLT
.L4:
	.loc 1 26 16
	subl	$512, -76(%rbp)
	.loc 1 27 13
	addq	$512, -72(%rbp)
.L2:
	.loc 1 16 19
	cmpl	$0, -76(%rbp)
	jg	.L5
	.loc 1 29 5
	leaq	-64(%rbp), %rdx
	leaq	-32(%rbp), %rcx
	movq	-56(%rbp), %rax
	movq	%rcx, %rsi
	movq	%rax, %rdi
	call	EVP_DigestFinal_ex@PLT
	.loc 1 30 5
	movq	-56(%rbp), %rax
	movq	%rax, %rdi
	call	EVP_MD_CTX_free@PLT
.LBB2:
	.loc 1 32 14
	movl	$0, -60(%rbp)
	.loc 1 32 5
	jmp	.L6
.L7:
	.loc 1 34 69
	movl	-60(%rbp), %eax
	cltq
	movzbl	-32(%rbp,%rax), %eax
	.loc 1 34 9
	movzbl	%al, %eax
	.loc 1 34 26
	movl	-60(%rbp), %edx
	addl	%edx, %edx
	movslq	%edx, %rcx
	.loc 1 34 9
	movq	-40(%rbp), %rdx
	leaq	(%rcx,%rdx), %rdi
	movl	%eax, %ecx
	leaq	.LC0(%rip), %rax
	movq	%rax, %rdx
	movl	$32, %esi
	movl	$0, %eax
	call	snprintf@PLT
	.loc 1 32 33 discriminator 3
	addl	$1, -60(%rbp)
.L6:
	.loc 1 32 23 discriminator 1
	movl	-64(%rbp), %eax
	cmpl	%eax, -60(%rbp)
	jl	.L7
.LBE2:
	.loc 1 36 12
	movq	-40(%rbp), %rax
	.loc 1 37 1
	movq	-8(%rbp), %rdx
	subq	%fs:40, %rdx
	je	.L9
	call	__stack_chk_fail@PLT
.L9:
	leave
	.cfi_def_cfa 7, 8
	ret
	.cfi_endproc
.LFE320:
	.size	str2md5, .-str2md5
	.local	shutdown_flag
	.comm	shutdown_flag,4,4
	.local	shutdown_mutex
	.comm	shutdown_mutex,40,32
	.section	.rodata
.LC1:
	.string	"\n\nCleaning up resources...\n"
	.text
	.globl	sig_handler
	.type	sig_handler, @function
sig_handler:
.LFB321:
	.loc 1 46 27
	.cfi_startproc
	endbr64
	pushq	%rbp
	.cfi_def_cfa_offset 16
	.cfi_offset 6, -16
	movq	%rsp, %rbp
	.cfi_def_cfa_register 6
	subq	$32, %rsp
	movl	%edi, -20(%rbp)
	.loc 1 47 11
	leaq	.LC1(%rip), %rax
	movq	%rax, -8(%rbp)
	.loc 1 48 5
	movq	-8(%rbp), %rax
	movq	%rax, %rdi
	call	strlen@PLT
	movq	%rax, %rdx
	.loc 1 48 5 is_stmt 0 discriminator 1
	movq	-8(%rbp), %rax
	movq	%rax, %rsi
	movl	$1, %edi
	call	write@PLT
	.loc 1 49 19 is_stmt 1
	movl	$1, shutdown_flag(%rip)
	.loc 1 50 1
	nop
	leave
	.cfi_def_cfa 7, 8
	ret
	.cfi_endproc
.LFE321:
	.size	sig_handler, .-sig_handler
	.section	.rodata
.LC2:
	.string	"Argv[1] %s\n"
	.align 8
.LC3:
	.string	"\033[31m[-] You messed up, command is ./dfs <DFS_DIR> <PORT> | (passed numer of args: %d) \n\033[0m"
	.align 8
.LC4:
	.string	"\033[32m[+] Cache Timeout is set to %d sec\n\033[0m"
.LC5:
	.string	"\033[31maccept\033[0m"
	.text
	.globl	main
	.type	main, @function
main:
.LFB322:
	.loc 1 53 1
	.cfi_startproc
	endbr64
	pushq	%rbp
	.cfi_def_cfa_offset 16
	.cfi_offset 6, -16
	movq	%rsp, %rbp
	.cfi_def_cfa_register 6
	subq	$416, %rsp
	movl	%edi, -404(%rbp)
	movq	%rsi, -416(%rbp)
	.loc 1 53 1
	movq	%fs:40, %rax
	movq	%rax, -8(%rbp)
	xorl	%eax, %eax
	.loc 1 55 5
	leaq	-384(%rbp), %rax
	movl	$152, %edx
	movl	$0, %esi
	movq	%rax, %rdi
	call	memset@PLT
	.loc 1 56 5
	leaq	-384(%rbp), %rax
	addq	$8, %rax
	movq	%rax, %rdi
	call	sigemptyset@PLT
	.loc 1 57 17
	movl	$0, -248(%rbp)
	.loc 1 58 19
	leaq	sig_handler(%rip), %rax
	movq	%rax, -384(%rbp)
	.loc 1 60 5
	leaq	-384(%rbp), %rax
	movl	$0, %edx
	movq	%rax, %rsi
	movl	$2, %edi
	call	sigaction@PLT
	.loc 1 61 5
	movl	$1, %esi
	movl	$13, %edi
	call	signal@PLT
	.loc 1 64 5
	leaq	-224(%rbp), %rax
	addq	$168, %rax
	movl	$0, %esi
	movq	%rax, %rdi
	call	pthread_mutex_init@PLT
	.loc 1 66 32
	movq	-416(%rbp), %rax
	addq	$8, %rax
	.loc 1 66 5
	movq	(%rax), %rax
	movq	%rax, %rsi
	leaq	.LC2(%rip), %rax
	movq	%rax, %rdi
	movl	$0, %eax
	call	printf@PLT
	.loc 1 77 8
	cmpl	$3, -404(%rbp)
	je	.L12
	.loc 1 80 9
	movl	-404(%rbp), %eax
	movl	%eax, %esi
	leaq	.LC3(%rip), %rax
	movq	%rax, %rdi
	movl	$0, %eax
	call	printf@PLT
	.loc 1 81 9
	movl	$1, %edi
	call	exit@PLT
.L12:
	.loc 1 88 5
	movl	-68(%rbp), %eax
	movl	%eax, %esi
	leaq	.LC4(%rip), %rax
	movq	%rax, %rdi
	movl	$0, %eax
	call	printf@PLT
	.loc 1 89 17
	movl	$128, -80(%rbp)
	.loc 1 93 26
	movq	-416(%rbp), %rax
	addq	$16, %rax
	.loc 1 93 5
	movq	(%rax), %rdx
	leaq	-224(%rbp), %rax
	movq	%rdx, %rsi
	movq	%rax, %rdi
	call	init_socket@PLT
	.loc 1 96 21
	movl	$10, %edi
	call	create_threadpool@PLT
	movq	%rax, -392(%rbp)
	.loc 1 97 8
	cmpq	$0, -392(%rbp)
	je	.L21
	.loc 1 105 11
	jmp	.L15
.L18:
	.loc 1 107 34
	leaq	-224(%rbp), %rax
	addq	$8, %rax
	movq	%rax, %rcx
	movl	-224(%rbp), %eax
	leaq	-224(%rbp), %rdx
	addq	$144, %rdx
	movq	%rcx, %rsi
	movl	%eax, %edi
	call	accept@PLT
	.loc 1 107 32 discriminator 1
	movl	%eax, -220(%rbp)
	.loc 1 107 16 discriminator 1
	movl	-220(%rbp), %eax
	.loc 1 107 12 discriminator 1
	testl	%eax, %eax
	jns	.L16
	.loc 1 107 110 discriminator 1
	call	__errno_location@PLT
	movl	(%rax), %eax
	.loc 1 107 107 discriminator 1
	cmpl	$4, %eax
	je	.L16
	.loc 1 109 13
	leaq	.LC5(%rip), %rax
	movq	%rax, %rdi
	call	perror@PLT
	.loc 1 110 13
	jmp	.L14
.L16:
	.loc 1 113 9
	leaq	-224(%rbp), %rdx
	movq	-392(%rbp), %rax
	movq	handle_req@GOTPCREL(%rip), %rcx
	movq	%rcx, %rsi
	movq	%rax, %rdi
	call	dispatch@PLT
	.loc 1 116 9
	leaq	shutdown_mutex(%rip), %rax
	movq	%rax, %rdi
	call	pthread_mutex_lock@PLT
	.loc 1 117 12
	movl	shutdown_flag(%rip), %eax
	.loc 1 117 11
	testl	%eax, %eax
	jne	.L22
	.loc 1 120 9
	leaq	shutdown_mutex(%rip), %rax
	movq	%rax, %rdi
	call	pthread_mutex_unlock@PLT
.L15:
	.loc 1 105 12
	movl	shutdown_flag(%rip), %eax
	testl	%eax, %eax
	je	.L18
	.loc 1 124 1
	jmp	.L14
.L21:
	.loc 1 98 9
	nop
	jmp	.L14
.L22:
	.loc 1 118 13
	nop
.L14:
	.loc 1 126 5
	movl	-224(%rbp), %eax
	movl	%eax, %edi
	call	close@PLT
	.loc 1 128 5
	movq	-392(%rbp), %rax
	movq	%rax, %rdi
	call	destroy_threadpool@PLT
	.loc 1 131 12
	movl	$0, %eax
	.loc 1 132 1
	movq	-8(%rbp), %rdx
	subq	%fs:40, %rdx
	je	.L20
	call	__stack_chk_fail@PLT
.L20:
	leave
	.cfi_def_cfa 7, 8
	ret
	.cfi_endproc
.LFE322:
	.size	main, .-main
.Letext0:
	.file 2 "/usr/lib/gcc/x86_64-linux-gnu/14/include/stddef.h"
	.file 3 "/usr/include/x86_64-linux-gnu/bits/types.h"
	.file 4 "/usr/include/stdio.h"
	.file 5 "/usr/include/x86_64-linux-gnu/bits/types/__sigset_t.h"
	.file 6 "/usr/include/x86_64-linux-gnu/bits/types/sigset_t.h"
	.file 7 "/usr/include/x86_64-linux-gnu/bits/thread-shared-types.h"
	.file 8 "/usr/include/x86_64-linux-gnu/bits/struct_mutex.h"
	.file 9 "/usr/include/x86_64-linux-gnu/bits/pthreadtypes.h"
	.file 10 "/usr/include/unistd.h"
	.file 11 "/usr/include/x86_64-linux-gnu/bits/sockaddr.h"
	.file 12 "/usr/include/x86_64-linux-gnu/bits/socket.h"
	.file 13 "/usr/include/x86_64-linux-gnu/sys/socket.h"
	.file 14 "/usr/include/x86_64-linux-gnu/bits/types/__sigval_t.h"
	.file 15 "/usr/include/netdb.h"
	.file 16 "/usr/include/x86_64-linux-gnu/bits/types/sig_atomic_t.h"
	.file 17 "/usr/include/x86_64-linux-gnu/bits/types/siginfo_t.h"
	.file 18 "/usr/include/signal.h"
	.file 19 "/usr/include/x86_64-linux-gnu/bits/sigaction.h"
	.file 20 "/usr/include/openssl/types.h"
	.file 21 "common.h"
	.file 22 "includes/queue.h"
	.file 23 "/usr/include/pthread.h"
	.file 24 "includes/handle_req.h"
	.file 25 "includes/setup.h"
	.file 26 "/usr/include/stdlib.h"
	.file 27 "/usr/include/string.h"
	.file 28 "/usr/include/openssl/evp.h"
	.file 29 "/usr/include/errno.h"
	.section	.note.GNU-stack,"",@progbits
	.section	.note.gnu.property,"a"
	.align 8
	.long	1f - 0f
	.long	4f - 1f
	.long	5
0:
	.string	"GNU"
1:
	.align 8
	.long	0xc0000002
	.long	3f - 2f
2:
	.long	0x3
3:
	.align 8
4:
